
../repos/charybdis/modules/.libs/m_map.so:     file format elf32-littlearm


Disassembly of section .init:

0000061c <_init>:
 61c:	push	{r3, lr}
 620:	bl	6a8 <call_weak_fn>
 624:	pop	{r3, pc}

Disassembly of section .plt:

00000628 <.plt>:
 628:	push	{lr}		; (str lr, [sp, #-4]!)
 62c:	ldr	lr, [pc, #4]	; 638 <.plt+0x10>
 630:	add	lr, pc, lr
 634:	ldr	pc, [lr, #8]!
 638:	.word	0x000109c8

0000063c <__cxa_finalize@plt>:
 63c:	add	ip, pc, #0, 12
 640:	add	ip, ip, #16, 20	; 0x10000
 644:	ldr	pc, [ip, #2504]!	; 0x9c8

00000648 <__gmon_start__@plt>:
 648:	add	ip, pc, #0, 12
 64c:	add	ip, ip, #16, 20	; 0x10000
 650:	ldr	pc, [ip, #2496]!	; 0x9c0

00000654 <sendto_one_numeric@plt>:
 654:	add	ip, pc, #0, 12
 658:	add	ip, ip, #16, 20	; 0x10000
 65c:	ldr	pc, [ip, #2488]!	; 0x9b8

00000660 <strlen@plt>:
 660:	add	ip, pc, #0, 12
 664:	add	ip, ip, #16, 20	; 0x10000
 668:	ldr	pc, [ip, #2480]!	; 0x9b0

0000066c <snprintf@plt>:
 66c:	add	ip, pc, #0, 12
 670:	add	ip, ip, #16, 20	; 0x10000
 674:	ldr	pc, [ip, #2472]!	; 0x9a8

00000678 <memset@plt>:
 678:	add	ip, pc, #0, 12
 67c:	add	ip, ip, #16, 20	; 0x10000
 680:	ldr	pc, [ip, #2464]!	; 0x9a0

00000684 <scache_send_missing@plt>:
 684:	add	ip, pc, #0, 12
 688:	add	ip, ip, #16, 20	; 0x10000
 68c:	ldr	pc, [ip, #2456]!	; 0x998

00000690 <rb_strlcpy@plt>:
 690:	add	ip, pc, #0, 12
 694:	add	ip, ip, #16, 20	; 0x10000
 698:	ldr	pc, [ip, #2448]!	; 0x990

0000069c <rb_strlcat@plt>:
 69c:	add	ip, pc, #0, 12
 6a0:	add	ip, ip, #16, 20	; 0x10000
 6a4:	ldr	pc, [ip, #2440]!	; 0x988

Disassembly of section .text:

000006a8 <call_weak_fn>:
 6a8:	ldr	r3, [pc, #20]	; 6c4 <call_weak_fn+0x1c>
 6ac:	ldr	r2, [pc, #20]	; 6c8 <call_weak_fn+0x20>
 6b0:	add	r3, pc, r3
 6b4:	ldr	r2, [r3, r2]
 6b8:	cmp	r2, #0
 6bc:	bxeq	lr
 6c0:	b	648 <__gmon_start__@plt>
 6c4:	.word	0x00010948
 6c8:	.word	0x00000044

000006cc <deregister_tm_clones>:
 6cc:	ldr	r0, [pc, #44]	; 700 <deregister_tm_clones+0x34>
 6d0:	ldr	r3, [pc, #44]	; 704 <deregister_tm_clones+0x38>
 6d4:	add	r0, pc, r0
 6d8:	add	r3, pc, r3
 6dc:	cmp	r3, r0
 6e0:	ldr	r3, [pc, #32]	; 708 <deregister_tm_clones+0x3c>
 6e4:	add	r3, pc, r3
 6e8:	bxeq	lr
 6ec:	ldr	r2, [pc, #24]	; 70c <deregister_tm_clones+0x40>
 6f0:	ldr	r3, [r3, r2]
 6f4:	cmp	r3, #0
 6f8:	bxeq	lr
 6fc:	bx	r3
 700:	.word	0x000109f0
 704:	.word	0x000109ec
 708:	.word	0x00010914
 70c:	.word	0x00000038

00000710 <register_tm_clones>:
 710:	ldr	r0, [pc, #56]	; 750 <register_tm_clones+0x40>
 714:	ldr	r3, [pc, #56]	; 754 <register_tm_clones+0x44>
 718:	add	r0, pc, r0
 71c:	add	r3, pc, r3
 720:	sub	r1, r3, r0
 724:	ldr	r3, [pc, #44]	; 758 <register_tm_clones+0x48>
 728:	asr	r1, r1, #2
 72c:	add	r3, pc, r3
 730:	add	r1, r1, r1, lsr #31
 734:	asrs	r1, r1, #1
 738:	bxeq	lr
 73c:	ldr	r2, [pc, #24]	; 75c <register_tm_clones+0x4c>
 740:	ldr	r3, [r3, r2]
 744:	cmp	r3, #0
 748:	bxeq	lr
 74c:	bx	r3
 750:	.word	0x000109ac
 754:	.word	0x000109a8
 758:	.word	0x000108cc
 75c:	.word	0x00000048

00000760 <__do_global_dtors_aux>:
 760:	ldr	r3, [pc, #76]	; 7b4 <__do_global_dtors_aux+0x54>
 764:	ldr	r2, [pc, #76]	; 7b8 <__do_global_dtors_aux+0x58>
 768:	add	r3, pc, r3
 76c:	add	r2, pc, r2
 770:	ldrb	r3, [r3]
 774:	cmp	r3, #0
 778:	bxne	lr
 77c:	ldr	r3, [pc, #56]	; 7bc <__do_global_dtors_aux+0x5c>
 780:	push	{r4, lr}
 784:	ldr	r3, [r2, r3]
 788:	cmp	r3, #0
 78c:	beq	79c <__do_global_dtors_aux+0x3c>
 790:	ldr	r3, [pc, #40]	; 7c0 <__do_global_dtors_aux+0x60>
 794:	ldr	r0, [pc, r3]
 798:	bl	63c <__cxa_finalize@plt>
 79c:	bl	6cc <deregister_tm_clones>
 7a0:	ldr	r3, [pc, #28]	; 7c4 <__do_global_dtors_aux+0x64>
 7a4:	mov	r2, #1
 7a8:	add	r3, pc, r3
 7ac:	strb	r2, [r3]
 7b0:	pop	{r4, pc}
 7b4:	.word	0x0001095c
 7b8:	.word	0x0001088c
 7bc:	.word	0x00000034
 7c0:	.word	0x000108b8
 7c4:	.word	0x0001091c

000007c8 <frame_dummy>:
 7c8:	b	710 <register_tm_clones>

000007cc <m_map>:
 7cc:	push	{r4, r5, r6, r7, r8, r9, sl, fp, lr}
 7d0:	add	fp, sp, #28
 7d4:	sub	sp, sp, #4
 7d8:	vpush	{d8}
 7dc:	sub	sp, sp, #528	; 0x210
 7e0:	ldrb	r0, [r2, #67]	; 0x43
 7e4:	mov	r4, r1
 7e8:	mov	r1, #1
 7ec:	and	r0, r0, #4
 7f0:	eor	r0, r1, r0, lsr #2
 7f4:	ldr	r1, [pc, #612]	; a60 <m_map+0x294>
 7f8:	ldr	r1, [pc, r1]
 7fc:	ldr	r1, [r1]
 800:	cmp	r1, #0
 804:	movwne	r1, #1
 808:	tst	r0, r1
 80c:	ldreq	r0, [pc, #592]	; a64 <m_map+0x298>
 810:	ldreq	r0, [pc, r0]
 814:	ldreq	r0, [r0, #176]	; 0xb0
 818:	cmpeq	r0, #0
 81c:	beq	a20 <m_map+0x254>
 820:	ldr	r6, [pc, #576]	; a68 <m_map+0x29c>
 824:	add	r5, sp, #12
 828:	mov	r2, #512	; 0x200
 82c:	mov	r0, r5
 830:	ldr	r6, [pc, r6]
 834:	add	r1, r6, #88	; 0x58
 838:	bl	690 <rb_strlcpy@plt>
 83c:	mov	r0, r5
 840:	bl	660 <strlen@plt>
 844:	mov	r1, #32
 848:	cmp	r0, #48	; 0x30
 84c:	strb	r1, [r5, r0]
 850:	bgt	86c <m_map+0xa0>
 854:	add	r1, r5, r0
 858:	rsb	r2, r0, #49	; 0x31
 85c:	add	r1, r1, #1
 860:	mov	r0, r1
 864:	mov	r1, #45	; 0x2d
 868:	bl	678 <memset@plt>
 86c:	ldr	r0, [r6, #28]
 870:	vldr	s16, [pc, #484]	; a5c <m_map+0x290>
 874:	add	r6, r5, #50	; 0x32
 878:	movw	r1, #462	; 0x1ce
 87c:	ldr	r3, [r0, #56]	; 0x38
 880:	ldr	r0, [pc, #484]	; a6c <m_map+0x2a0>
 884:	ldr	r0, [pc, r0]
 888:	vmov	s2, r3
 88c:	vldr	s0, [r0, #4]
 890:	vcvt.f32.u32	s2, s2
 894:	mov	r0, r6
 898:	vmul.f32	s2, s2, s16
 89c:	vcvt.f32.s32	s0, s0
 8a0:	vdiv.f32	s0, s2, s0
 8a4:	vcvt.f64.f32	d16, s0
 8a8:	vstr	d16, [sp]
 8ac:	ldr	r2, [pc, #444]	; a70 <m_map+0x2a4>
 8b0:	add	r2, pc, r2
 8b4:	bl	66c <snprintf@plt>
 8b8:	ldr	r2, [pc, #436]	; a74 <m_map+0x2a8>
 8bc:	mov	r0, r4
 8c0:	mov	r1, #15
 8c4:	mov	r3, r5
 8c8:	add	r2, pc, r2
 8cc:	bl	654 <sendto_one_numeric@plt>
 8d0:	ldr	sl, [pc, #416]	; a78 <m_map+0x2ac>
 8d4:	ldr	sl, [pc, sl]
 8d8:	ldr	r8, [sl]
 8dc:	cmp	r8, #0
 8e0:	beq	9fc <m_map+0x230>
 8e4:	add	r0, r5, #1
 8e8:	mov	r9, #1
 8ec:	str	r0, [sp, #8]
 8f0:	ldr	r7, [r8]
 8f4:	ldrh	r0, [r7, #80]	; 0x50
 8f8:	cmp	r0, #4
 8fc:	beq	9ec <m_map+0x220>
 900:	ldr	r0, [pc, #372]	; a7c <m_map+0x2b0>
 904:	ldr	r0, [pc, r0]
 908:	ldr	r0, [r0, #12]
 90c:	cmp	r0, #0
 910:	bne	920 <m_map+0x154>
 914:	ldrb	r0, [r7, #65]	; 0x41
 918:	tst	r0, #8
 91c:	bne	9ec <m_map+0x220>
 920:	ldr	r0, [sl, #8]
 924:	cmp	r9, r0
 928:	bne	93c <m_map+0x170>
 92c:	ldr	r1, [pc, #332]	; a80 <m_map+0x2b4>
 930:	mov	r0, r5
 934:	add	r1, pc, r1
 938:	b	948 <m_map+0x17c>
 93c:	ldr	r1, [pc, #320]	; a84 <m_map+0x2b8>
 940:	mov	r0, r5
 944:	add	r1, pc, r1
 948:	mov	r2, #512	; 0x200
 94c:	bl	690 <rb_strlcpy@plt>
 950:	add	r1, r7, #88	; 0x58
 954:	mov	r0, r5
 958:	mov	r2, #512	; 0x200
 95c:	bl	69c <rb_strlcat@plt>
 960:	mov	r0, r5
 964:	bl	660 <strlen@plt>
 968:	mov	r1, #32
 96c:	cmp	r0, #48	; 0x30
 970:	strb	r1, [r5, r0]
 974:	bgt	990 <m_map+0x1c4>
 978:	ldr	r1, [sp, #8]
 97c:	rsb	r2, r0, #49	; 0x31
 980:	add	r1, r1, r0
 984:	mov	r0, r1
 988:	mov	r1, #45	; 0x2d
 98c:	bl	678 <memset@plt>
 990:	ldr	r0, [r7, #28]
 994:	movw	r1, #462	; 0x1ce
 998:	ldr	r3, [r0, #56]	; 0x38
 99c:	ldr	r0, [pc, #228]	; a88 <m_map+0x2bc>
 9a0:	ldr	r0, [pc, r0]
 9a4:	vmov	s2, r3
 9a8:	vldr	s0, [r0, #4]
 9ac:	vcvt.f32.u32	s2, s2
 9b0:	mov	r0, r6
 9b4:	vmul.f32	s2, s2, s16
 9b8:	vcvt.f32.s32	s0, s0
 9bc:	vdiv.f32	s0, s2, s0
 9c0:	vcvt.f64.f32	d16, s0
 9c4:	vstr	d16, [sp]
 9c8:	ldr	r2, [pc, #188]	; a8c <m_map+0x2c0>
 9cc:	add	r2, pc, r2
 9d0:	bl	66c <snprintf@plt>
 9d4:	ldr	r2, [pc, #180]	; a90 <m_map+0x2c4>
 9d8:	mov	r0, r4
 9dc:	mov	r1, #15
 9e0:	mov	r3, r5
 9e4:	add	r2, pc, r2
 9e8:	bl	654 <sendto_one_numeric@plt>
 9ec:	ldr	r8, [r8, #8]
 9f0:	add	r9, r9, #1
 9f4:	cmp	r8, #0
 9f8:	bne	8f0 <m_map+0x124>
 9fc:	ldr	r2, [pc, #144]	; a94 <m_map+0x2c8>
 a00:	mov	r0, r4
 a04:	mov	r1, #17
 a08:	add	r2, pc, r2
 a0c:	bl	654 <sendto_one_numeric@plt>
 a10:	sub	sp, fp, #40	; 0x28
 a14:	vpop	{d8}
 a18:	add	sp, sp, #4
 a1c:	pop	{r4, r5, r6, r7, r8, r9, sl, fp, pc}
 a20:	ldr	r1, [pc, #112]	; a98 <m_map+0x2cc>
 a24:	mov	r0, r4
 a28:	ldr	r1, [pc, r1]
 a2c:	ldr	r2, [pc, #104]	; a9c <m_map+0x2d0>
 a30:	add	r2, pc, r2
 a34:	bl	af4 <dump_map>
 a38:	ldr	r2, [pc, #96]	; aa0 <m_map+0x2d4>
 a3c:	mov	r0, r4
 a40:	mov	r1, #17
 a44:	add	r2, pc, r2
 a48:	sub	sp, fp, #40	; 0x28
 a4c:	vpop	{d8}
 a50:	add	sp, sp, #4
 a54:	pop	{r4, r5, r6, r7, r8, r9, sl, fp, lr}
 a58:	b	654 <sendto_one_numeric@plt>
 a5c:	.word	0x42c80000
 a60:	.word	0x00010840
 a64:	.word	0x00010838
 a68:	.word	0x00010814
 a6c:	.word	0x000107b0
 a70:	.word	0x0000044d
 a74:	.word	0x0000044e
 a78:	.word	0x00010754
 a7c:	.word	0x00010734
 a80:	.word	0x000003e6
 a84:	.word	0x000003db
 a88:	.word	0x00010694
 a8c:	.word	0x00000331
 a90:	.word	0x00000332
 a94:	.word	0x000002e8
 a98:	.word	0x0001061c
 a9c:	.word	0x00010695
 aa0:	.word	0x000002ac

00000aa4 <mo_map>:
 aa4:	push	{r4, sl, fp, lr}
 aa8:	add	fp, sp, #8
 aac:	mov	r4, r1
 ab0:	ldr	r1, [pc, #48]	; ae8 <mo_map+0x44>
 ab4:	mov	r0, r4
 ab8:	ldr	r1, [pc, r1]
 abc:	ldr	r2, [pc, #40]	; aec <mo_map+0x48>
 ac0:	add	r2, pc, r2
 ac4:	bl	af4 <dump_map>
 ac8:	mov	r0, r4
 acc:	bl	684 <scache_send_missing@plt>
 ad0:	ldr	r2, [pc, #24]	; af0 <mo_map+0x4c>
 ad4:	mov	r0, r4
 ad8:	mov	r1, #17
 adc:	add	r2, pc, r2
 ae0:	pop	{r4, sl, fp, lr}
 ae4:	b	654 <sendto_one_numeric@plt>
 ae8:	.word	0x0001058c
 aec:	.word	0x00010605
 af0:	.word	0x00000214

00000af4 <dump_map>:
 af4:	push	{r4, r5, r6, r7, r8, r9, sl, fp, lr}
 af8:	add	fp, sp, #28
 afc:	sub	sp, sp, #12
 b00:	mov	r5, r0
 b04:	mov	r0, #0
 b08:	mov	r6, r1
 b0c:	mov	r4, r2
 b10:	add	r1, r1, #88	; 0x58
 b14:	strb	r0, [r2]
 b18:	mov	r0, r2
 b1c:	mov	r2, #512	; 0x200
 b20:	bl	69c <rb_strlcat@plt>
 b24:	mov	r7, r6
 b28:	ldrb	r0, [r7, #396]!	; 0x18c
 b2c:	cmp	r0, #0
 b30:	beq	b6c <dump_map+0x78>
 b34:	ldr	r1, [pc, #412]	; cd8 <dump_map+0x1e4>
 b38:	mov	r0, r4
 b3c:	mov	r2, #512	; 0x200
 b40:	add	r1, pc, r1
 b44:	bl	69c <rb_strlcat@plt>
 b48:	mov	r0, r4
 b4c:	mov	r1, r7
 b50:	mov	r2, #512	; 0x200
 b54:	bl	69c <rb_strlcat@plt>
 b58:	ldr	r1, [pc, #380]	; cdc <dump_map+0x1e8>
 b5c:	mov	r0, r4
 b60:	mov	r2, #512	; 0x200
 b64:	add	r1, pc, r1
 b68:	bl	69c <rb_strlcat@plt>
 b6c:	ldr	r8, [pc, #364]	; ce0 <dump_map+0x1ec>
 b70:	add	r8, pc, r8
 b74:	mov	r0, r8
 b78:	bl	660 <strlen@plt>
 b7c:	mov	r1, #32
 b80:	cmp	r0, #48	; 0x30
 b84:	strb	r1, [r8, r0]
 b88:	bgt	ba4 <dump_map+0xb0>
 b8c:	add	r1, r8, r0
 b90:	rsb	r2, r0, #49	; 0x31
 b94:	add	r1, r1, #1
 b98:	mov	r0, r1
 b9c:	mov	r1, #45	; 0x2d
 ba0:	bl	678 <memset@plt>
 ba4:	ldr	r0, [r6, #28]
 ba8:	ldr	r3, [r0, #56]	; 0x38
 bac:	ldr	r1, [pc, #304]	; ce4 <dump_map+0x1f0>
 bb0:	mov	r0, #1000	; 0x3e8
 bb4:	ldr	r1, [pc, r1]
 bb8:	mul	r0, r3, r0
 bbc:	ldr	r1, [r1, #4]
 bc0:	add	r2, r1, r1, lsr #31
 bc4:	add	r0, r0, r2, asr #1
 bc8:	udiv	r0, r0, r1
 bcc:	movw	r1, #26215	; 0x6667
 bd0:	movt	r1, #26214	; 0x6666
 bd4:	smmul	r1, r0, r1
 bd8:	asr	r2, r1, #2
 bdc:	add	r1, r2, r1, lsr #31
 be0:	add	r2, r1, r1, lsl #2
 be4:	str	r1, [sp]
 be8:	movw	r1, #462	; 0x1ce
 bec:	sub	r0, r0, r2, lsl #1
 bf0:	str	r0, [sp, #4]
 bf4:	add	r0, r8, #50	; 0x32
 bf8:	ldr	r2, [pc, #232]	; ce8 <dump_map+0x1f4>
 bfc:	add	r2, pc, r2
 c00:	bl	66c <snprintf@plt>
 c04:	ldr	r2, [pc, #224]	; cec <dump_map+0x1f8>
 c08:	mov	r0, r5
 c0c:	mov	r1, #15
 c10:	mov	r3, r8
 c14:	add	r2, pc, r2
 c18:	bl	654 <sendto_one_numeric@plt>
 c1c:	ldr	r0, [r6, #28]
 c20:	ldr	r1, [r0, #36]	; 0x24
 c24:	cmp	r1, #0
 c28:	beq	c70 <dump_map+0x17c>
 c2c:	ldr	sl, [r0, #44]	; 0x2c
 c30:	add	r0, r8, #3
 c34:	mov	r8, r5
 c38:	cmp	r4, r0
 c3c:	bls	c5c <dump_map+0x168>
 c40:	cmp	sl, #0
 c44:	beq	c5c <dump_map+0x168>
 c48:	mov	r0, #32
 c4c:	strb	r0, [r4, #-2]
 c50:	ldrb	r1, [r4, #-3]
 c54:	cmp	r1, #96	; 0x60
 c58:	strbeq	r0, [r4, #-3]
 c5c:	ldr	r0, [r6, #28]
 c60:	ldr	r5, [r0, #36]	; 0x24
 c64:	cmp	r5, #0
 c68:	bne	c88 <dump_map+0x194>
 c6c:	b	cd0 <dump_map+0x1dc>
 c70:	mov	r8, r5
 c74:	mov	sl, #0
 c78:	ldr	r0, [r6, #28]
 c7c:	ldr	r5, [r0, #36]	; 0x24
 c80:	cmp	r5, #0
 c84:	beq	cd0 <dump_map+0x1dc>
 c88:	add	r6, r4, #4
 c8c:	mov	r7, #1
 c90:	movw	r9, #8237	; 0x202d
 c94:	cmp	r7, sl
 c98:	mov	r0, #96	; 0x60
 c9c:	ldr	r1, [r5]
 ca0:	mov	r2, r6
 ca4:	movwlt	r0, #124	; 0x7c
 ca8:	strb	r0, [r4, #1]
 cac:	mov	r0, #32
 cb0:	strb	r0, [r4]
 cb4:	mov	r0, r8
 cb8:	strh	r9, [r4, #2]
 cbc:	bl	af4 <dump_map>
 cc0:	ldr	r5, [r5, #8]
 cc4:	add	r7, r7, #1
 cc8:	cmp	r5, #0
 ccc:	bne	c94 <dump_map+0x1a0>
 cd0:	sub	sp, fp, #28
 cd4:	pop	{r4, r5, r6, r7, r8, r9, sl, fp, pc}
 cd8:	.word	0x000001e4
 cdc:	.word	0x000001c2
 ce0:	.word	0x00010555
 ce4:	.word	0x00010480
 ce8:	.word	0x0000012c
 cec:	.word	0x00000102

Disassembly of section .fini:

00000cf0 <_fini>:
 cf0:	push	{r3, lr}
 cf4:	pop	{r3, pc}
