
../repos/charybdis/modules/.libs/m_map.so:     file format elf32-littlearm


Disassembly of section .init:

0000061c <_init>:
 61c:	push	{r3, lr}
 620:	bl	6a8 <call_weak_fn>
 624:	pop	{r3, pc}

Disassembly of section .plt:

00000628 <.plt>:
 628:	push	{lr}		; (str lr, [sp, #-4]!)
 62c:	ldr	lr, [pc, #4]	; 638 <.plt+0x10>
 630:	add	lr, pc, lr
 634:	ldr	pc, [lr, #8]!
 638:	.word	0x000109c8

0000063c <__cxa_finalize@plt>:
 63c:	add	ip, pc, #0, 12
 640:	add	ip, ip, #16, 20	; 0x10000
 644:	ldr	pc, [ip, #2504]!	; 0x9c8

00000648 <__gmon_start__@plt>:
 648:	add	ip, pc, #0, 12
 64c:	add	ip, ip, #16, 20	; 0x10000
 650:	ldr	pc, [ip, #2496]!	; 0x9c0

00000654 <sendto_one_numeric@plt>:
 654:	add	ip, pc, #0, 12
 658:	add	ip, ip, #16, 20	; 0x10000
 65c:	ldr	pc, [ip, #2488]!	; 0x9b8

00000660 <strlen@plt>:
 660:	add	ip, pc, #0, 12
 664:	add	ip, ip, #16, 20	; 0x10000
 668:	ldr	pc, [ip, #2480]!	; 0x9b0

0000066c <snprintf@plt>:
 66c:	add	ip, pc, #0, 12
 670:	add	ip, ip, #16, 20	; 0x10000
 674:	ldr	pc, [ip, #2472]!	; 0x9a8

00000678 <memset@plt>:
 678:	add	ip, pc, #0, 12
 67c:	add	ip, ip, #16, 20	; 0x10000
 680:	ldr	pc, [ip, #2464]!	; 0x9a0

00000684 <scache_send_missing@plt>:
 684:	add	ip, pc, #0, 12
 688:	add	ip, ip, #16, 20	; 0x10000
 68c:	ldr	pc, [ip, #2456]!	; 0x998

00000690 <rb_strlcpy@plt>:
 690:	add	ip, pc, #0, 12
 694:	add	ip, ip, #16, 20	; 0x10000
 698:	ldr	pc, [ip, #2448]!	; 0x990

0000069c <rb_strlcat@plt>:
 69c:	add	ip, pc, #0, 12
 6a0:	add	ip, ip, #16, 20	; 0x10000
 6a4:	ldr	pc, [ip, #2440]!	; 0x988

Disassembly of section .text:

000006a8 <call_weak_fn>:
 6a8:	ldr	r3, [pc, #20]	; 6c4 <call_weak_fn+0x1c>
 6ac:	ldr	r2, [pc, #20]	; 6c8 <call_weak_fn+0x20>
 6b0:	add	r3, pc, r3
 6b4:	ldr	r2, [r3, r2]
 6b8:	cmp	r2, #0
 6bc:	bxeq	lr
 6c0:	b	648 <__gmon_start__@plt>
 6c4:	.word	0x00010948
 6c8:	.word	0x00000044

000006cc <deregister_tm_clones>:
 6cc:	ldr	r0, [pc, #44]	; 700 <deregister_tm_clones+0x34>
 6d0:	ldr	r3, [pc, #44]	; 704 <deregister_tm_clones+0x38>
 6d4:	add	r0, pc, r0
 6d8:	add	r3, pc, r3
 6dc:	cmp	r3, r0
 6e0:	ldr	r3, [pc, #32]	; 708 <deregister_tm_clones+0x3c>
 6e4:	add	r3, pc, r3
 6e8:	bxeq	lr
 6ec:	ldr	r2, [pc, #24]	; 70c <deregister_tm_clones+0x40>
 6f0:	ldr	r3, [r3, r2]
 6f4:	cmp	r3, #0
 6f8:	bxeq	lr
 6fc:	bx	r3
 700:	.word	0x000109f0
 704:	.word	0x000109ec
 708:	.word	0x00010914
 70c:	.word	0x00000038

00000710 <register_tm_clones>:
 710:	ldr	r0, [pc, #56]	; 750 <register_tm_clones+0x40>
 714:	ldr	r3, [pc, #56]	; 754 <register_tm_clones+0x44>
 718:	add	r0, pc, r0
 71c:	add	r3, pc, r3
 720:	sub	r1, r3, r0
 724:	ldr	r3, [pc, #44]	; 758 <register_tm_clones+0x48>
 728:	asr	r1, r1, #2
 72c:	add	r3, pc, r3
 730:	add	r1, r1, r1, lsr #31
 734:	asrs	r1, r1, #1
 738:	bxeq	lr
 73c:	ldr	r2, [pc, #24]	; 75c <register_tm_clones+0x4c>
 740:	ldr	r3, [r3, r2]
 744:	cmp	r3, #0
 748:	bxeq	lr
 74c:	bx	r3
 750:	.word	0x000109ac
 754:	.word	0x000109a8
 758:	.word	0x000108cc
 75c:	.word	0x00000048

00000760 <__do_global_dtors_aux>:
 760:	ldr	r3, [pc, #76]	; 7b4 <__do_global_dtors_aux+0x54>
 764:	ldr	r2, [pc, #76]	; 7b8 <__do_global_dtors_aux+0x58>
 768:	add	r3, pc, r3
 76c:	add	r2, pc, r2
 770:	ldrb	r3, [r3]
 774:	cmp	r3, #0
 778:	bxne	lr
 77c:	ldr	r3, [pc, #56]	; 7bc <__do_global_dtors_aux+0x5c>
 780:	push	{r4, lr}
 784:	ldr	r3, [r2, r3]
 788:	cmp	r3, #0
 78c:	beq	79c <__do_global_dtors_aux+0x3c>
 790:	ldr	r3, [pc, #40]	; 7c0 <__do_global_dtors_aux+0x60>
 794:	ldr	r0, [pc, r3]
 798:	bl	63c <__cxa_finalize@plt>
 79c:	bl	6cc <deregister_tm_clones>
 7a0:	ldr	r3, [pc, #28]	; 7c4 <__do_global_dtors_aux+0x64>
 7a4:	mov	r2, #1
 7a8:	add	r3, pc, r3
 7ac:	strb	r2, [r3]
 7b0:	pop	{r4, pc}
 7b4:	.word	0x0001095c
 7b8:	.word	0x0001088c
 7bc:	.word	0x00000034
 7c0:	.word	0x000108b8
 7c4:	.word	0x0001091c

000007c8 <frame_dummy>:
 7c8:	b	710 <register_tm_clones>

000007cc <m_map>:
 7cc:	push	{r4, r5, r6, r7, r8, r9, sl, fp, lr}
 7d0:	add	fp, sp, #28
 7d4:	sub	sp, sp, #4
 7d8:	vpush	{d8}
 7dc:	sub	sp, sp, #528	; 0x210
 7e0:	ldrb	r0, [r2, #67]	; 0x43
 7e4:	mov	r4, r1
 7e8:	mov	r1, #1
 7ec:	and	r0, r0, #4
 7f0:	eor	r0, r1, r0, lsr #2
 7f4:	ldr	r1, [pc, #640]	; a7c <m_map+0x2b0>
 7f8:	ldr	r1, [pc, r1]
 7fc:	ldr	r1, [r1]
 800:	cmp	r1, #0
 804:	movwne	r1, #1
 808:	tst	r0, r1
 80c:	bne	860 <m_map+0x94>
 810:	ldr	r0, [pc, #616]	; a80 <m_map+0x2b4>
 814:	ldr	r0, [pc, r0]
 818:	ldr	r0, [r0, #176]	; 0xb0
 81c:	cmp	r0, #0
 820:	bne	860 <m_map+0x94>
 824:	ldr	r1, [pc, #648]	; ab4 <m_map+0x2e8>
 828:	mov	r0, r4
 82c:	ldr	r1, [pc, r1]
 830:	ldr	r2, [pc, #640]	; ab8 <m_map+0x2ec>
 834:	add	r2, pc, r2
 838:	bl	b10 <dump_map>
 83c:	ldr	r2, [pc, #632]	; abc <m_map+0x2f0>
 840:	mov	r0, r4
 844:	mov	r1, #17
 848:	add	r2, pc, r2
 84c:	sub	sp, fp, #40	; 0x28
 850:	vpop	{d8}
 854:	add	sp, sp, #4
 858:	pop	{r4, r5, r6, r7, r8, r9, sl, fp, lr}
 85c:	b	654 <sendto_one_numeric@plt>
 860:	ldr	r6, [pc, #540]	; a84 <m_map+0x2b8>
 864:	add	r5, sp, #12
 868:	mov	r2, #512	; 0x200
 86c:	mov	r0, r5
 870:	ldr	r6, [pc, r6]
 874:	add	r1, r6, #88	; 0x58
 878:	bl	690 <rb_strlcpy@plt>
 87c:	mov	r0, r5
 880:	bl	660 <strlen@plt>
 884:	mov	r1, #32
 888:	cmp	r0, #49	; 0x31
 88c:	strb	r1, [r5, r0]
 890:	addle	r1, r0, #1
 894:	cmple	r1, #49	; 0x31
 898:	ble	a60 <m_map+0x294>
 89c:	ldr	r0, [r6, #28]
 8a0:	vldr	s16, [pc, #464]	; a78 <m_map+0x2ac>
 8a4:	add	r6, r5, #50	; 0x32
 8a8:	movw	r1, #462	; 0x1ce
 8ac:	ldr	r3, [r0, #56]	; 0x38
 8b0:	ldr	r0, [pc, #464]	; a88 <m_map+0x2bc>
 8b4:	vmov	s2, r3
 8b8:	ldr	r0, [pc, r0]
 8bc:	vldr	s0, [r0, #4]
 8c0:	mov	r0, r6
 8c4:	vcvt.f32.u32	s2, s2
 8c8:	vcvt.f32.s32	s0, s0
 8cc:	vmul.f32	s2, s2, s16
 8d0:	vdiv.f32	s0, s2, s0
 8d4:	vcvt.f64.f32	d16, s0
 8d8:	vstr	d16, [sp]
 8dc:	ldr	r2, [pc, #424]	; a8c <m_map+0x2c0>
 8e0:	add	r2, pc, r2
 8e4:	bl	66c <snprintf@plt>
 8e8:	ldr	r2, [pc, #416]	; a90 <m_map+0x2c4>
 8ec:	mov	r0, r4
 8f0:	mov	r1, #15
 8f4:	mov	r3, r5
 8f8:	add	r2, pc, r2
 8fc:	bl	654 <sendto_one_numeric@plt>
 900:	ldr	sl, [pc, #396]	; a94 <m_map+0x2c8>
 904:	ldr	sl, [pc, sl]
 908:	ldr	r9, [sl]
 90c:	cmp	r9, #0
 910:	beq	a3c <m_map+0x270>
 914:	add	r0, r5, #1
 918:	mov	r8, #1
 91c:	str	r0, [sp, #8]
 920:	ldr	r7, [r9]
 924:	ldrh	r0, [r7, #80]	; 0x50
 928:	cmp	r0, #4
 92c:	beq	990 <m_map+0x1c4>
 930:	b	9b0 <m_map+0x1e4>
 934:	ldr	r0, [r7, #28]
 938:	movw	r1, #462	; 0x1ce
 93c:	ldr	r3, [r0, #56]	; 0x38
 940:	ldr	r0, [pc, #348]	; aa4 <m_map+0x2d8>
 944:	vmov	s2, r3
 948:	ldr	r0, [pc, r0]
 94c:	vldr	s0, [r0, #4]
 950:	mov	r0, r6
 954:	vcvt.f32.u32	s2, s2
 958:	vcvt.f32.s32	s0, s0
 95c:	vmul.f32	s2, s2, s16
 960:	vdiv.f32	s0, s2, s0
 964:	vcvt.f64.f32	d16, s0
 968:	vstr	d16, [sp]
 96c:	ldr	r2, [pc, #308]	; aa8 <m_map+0x2dc>
 970:	add	r2, pc, r2
 974:	bl	66c <snprintf@plt>
 978:	ldr	r2, [pc, #300]	; aac <m_map+0x2e0>
 97c:	mov	r0, r4
 980:	mov	r1, #15
 984:	mov	r3, r5
 988:	add	r2, pc, r2
 98c:	bl	654 <sendto_one_numeric@plt>
 990:	ldr	r9, [r9, #8]
 994:	add	r8, r8, #1
 998:	cmp	r9, #0
 99c:	beq	a3c <m_map+0x270>
 9a0:	ldr	r7, [r9]
 9a4:	ldrh	r0, [r7, #80]	; 0x50
 9a8:	cmp	r0, #4
 9ac:	beq	990 <m_map+0x1c4>
 9b0:	ldr	r0, [pc, #224]	; a98 <m_map+0x2cc>
 9b4:	ldr	r0, [pc, r0]
 9b8:	ldr	r0, [r0, #12]
 9bc:	cmp	r0, #0
 9c0:	bne	9d0 <m_map+0x204>
 9c4:	ldrb	r0, [r7, #65]	; 0x41
 9c8:	tst	r0, #8
 9cc:	bne	990 <m_map+0x1c4>
 9d0:	ldr	r0, [sl, #8]
 9d4:	ldr	r1, [pc, #192]	; a9c <m_map+0x2d0>
 9d8:	mov	r2, #512	; 0x200
 9dc:	cmp	r8, r0
 9e0:	ldr	r0, [pc, #184]	; aa0 <m_map+0x2d4>
 9e4:	add	r1, pc, r1
 9e8:	add	r0, pc, r0
 9ec:	moveq	r1, r0
 9f0:	mov	r0, r5
 9f4:	bl	690 <rb_strlcpy@plt>
 9f8:	add	r1, r7, #88	; 0x58
 9fc:	mov	r0, r5
 a00:	mov	r2, #512	; 0x200
 a04:	bl	69c <rb_strlcat@plt>
 a08:	mov	r0, r5
 a0c:	bl	660 <strlen@plt>
 a10:	mov	r1, #32
 a14:	cmp	r0, #48	; 0x30
 a18:	strb	r1, [r5, r0]
 a1c:	bgt	934 <m_map+0x168>
 a20:	ldr	r1, [sp, #8]
 a24:	rsb	r2, r0, #49	; 0x31
 a28:	add	r1, r1, r0
 a2c:	mov	r0, r1
 a30:	mov	r1, #45	; 0x2d
 a34:	bl	678 <memset@plt>
 a38:	b	934 <m_map+0x168>
 a3c:	ldr	r2, [pc, #108]	; ab0 <m_map+0x2e4>
 a40:	mov	r0, r4
 a44:	mov	r1, #17
 a48:	add	r2, pc, r2
 a4c:	bl	654 <sendto_one_numeric@plt>
 a50:	sub	sp, fp, #40	; 0x28
 a54:	vpop	{d8}
 a58:	add	sp, sp, #4
 a5c:	pop	{r4, r5, r6, r7, r8, r9, sl, fp, pc}
 a60:	add	r1, r5, r1
 a64:	rsb	r2, r0, #49	; 0x31
 a68:	mov	r0, r1
 a6c:	mov	r1, #45	; 0x2d
 a70:	bl	678 <memset@plt>
 a74:	b	89c <m_map+0xd0>
 a78:	.word	0x42c80000
 a7c:	.word	0x00010840
 a80:	.word	0x00010834
 a84:	.word	0x000107d4
 a88:	.word	0x0001077c
 a8c:	.word	0x00000441
 a90:	.word	0x00000442
 a94:	.word	0x00010724
 a98:	.word	0x00010684
 a9c:	.word	0x0000035f
 aa0:	.word	0x00000356
 aa4:	.word	0x000106ec
 aa8:	.word	0x000003b1
 aac:	.word	0x000003b2
 ab0:	.word	0x000002cc
 ab4:	.word	0x00010818
 ab8:	.word	0x00010891
 abc:	.word	0x000004cc

00000ac0 <mo_map>:
 ac0:	push	{r4, sl, fp, lr}
 ac4:	add	fp, sp, #8
 ac8:	mov	r4, r1
 acc:	ldr	r1, [pc, #48]	; b04 <mo_map+0x44>
 ad0:	mov	r0, r4
 ad4:	ldr	r1, [pc, r1]
 ad8:	ldr	r2, [pc, #40]	; b08 <mo_map+0x48>
 adc:	add	r2, pc, r2
 ae0:	bl	b10 <dump_map>
 ae4:	mov	r0, r4
 ae8:	bl	684 <scache_send_missing@plt>
 aec:	ldr	r2, [pc, #24]	; b0c <mo_map+0x4c>
 af0:	mov	r0, r4
 af4:	mov	r1, #17
 af8:	add	r2, pc, r2
 afc:	pop	{r4, sl, fp, lr}
 b00:	b	654 <sendto_one_numeric@plt>
 b04:	.word	0x00010570
 b08:	.word	0x000105e9
 b0c:	.word	0x0000021c

00000b10 <dump_map>:
 b10:	push	{r4, r5, r6, r7, r8, r9, sl, fp, lr}
 b14:	add	fp, sp, #28
 b18:	sub	sp, sp, #12
 b1c:	mov	r5, r0
 b20:	mov	r0, #0
 b24:	mov	r6, r1
 b28:	mov	r4, r2
 b2c:	add	r1, r1, #88	; 0x58
 b30:	strb	r0, [r2]
 b34:	mov	r0, r2
 b38:	mov	r2, #512	; 0x200
 b3c:	bl	69c <rb_strlcat@plt>
 b40:	mov	r7, r6
 b44:	ldrb	r0, [r7, #396]!	; 0x18c
 b48:	cmp	r0, #0
 b4c:	beq	b88 <dump_map+0x78>
 b50:	ldr	r1, [pc, #420]	; cfc <dump_map+0x1ec>
 b54:	mov	r0, r4
 b58:	mov	r2, #512	; 0x200
 b5c:	add	r1, pc, r1
 b60:	bl	69c <rb_strlcat@plt>
 b64:	mov	r0, r4
 b68:	mov	r1, r7
 b6c:	mov	r2, #512	; 0x200
 b70:	bl	69c <rb_strlcat@plt>
 b74:	ldr	r1, [pc, #388]	; d00 <dump_map+0x1f0>
 b78:	mov	r0, r4
 b7c:	mov	r2, #512	; 0x200
 b80:	add	r1, pc, r1
 b84:	bl	69c <rb_strlcat@plt>
 b88:	ldr	r8, [pc, #372]	; d04 <dump_map+0x1f4>
 b8c:	add	r8, pc, r8
 b90:	mov	r0, r8
 b94:	bl	660 <strlen@plt>
 b98:	mov	r1, #32
 b9c:	cmp	r0, #49	; 0x31
 ba0:	strb	r1, [r8, r0]
 ba4:	addle	r1, r0, #1
 ba8:	cmple	r1, #49	; 0x31
 bac:	ble	ce4 <dump_map+0x1d4>
 bb0:	ldr	r0, [r6, #28]
 bb4:	ldr	r3, [r0, #56]	; 0x38
 bb8:	ldr	r1, [pc, #328]	; d08 <dump_map+0x1f8>
 bbc:	mov	r0, #1000	; 0x3e8
 bc0:	ldr	r1, [pc, r1]
 bc4:	mul	r0, r3, r0
 bc8:	ldr	r1, [r1, #4]
 bcc:	add	r2, r1, r1, lsr #31
 bd0:	add	r0, r0, r2, asr #1
 bd4:	udiv	r0, r0, r1
 bd8:	movw	r1, #26215	; 0x6667
 bdc:	movt	r1, #26214	; 0x6666
 be0:	smmul	r1, r0, r1
 be4:	asr	r2, r1, #2
 be8:	add	r1, r2, r1, lsr #31
 bec:	add	r2, r1, r1, lsl #2
 bf0:	str	r1, [sp]
 bf4:	movw	r1, #462	; 0x1ce
 bf8:	sub	r0, r0, r2, lsl #1
 bfc:	str	r0, [sp, #4]
 c00:	add	r0, r8, #50	; 0x32
 c04:	ldr	r2, [pc, #256]	; d0c <dump_map+0x1fc>
 c08:	add	r2, pc, r2
 c0c:	bl	66c <snprintf@plt>
 c10:	ldr	r2, [pc, #248]	; d10 <dump_map+0x200>
 c14:	mov	r0, r5
 c18:	mov	r1, #15
 c1c:	mov	r3, r8
 c20:	add	r2, pc, r2
 c24:	bl	654 <sendto_one_numeric@plt>
 c28:	ldr	r0, [r6, #28]
 c2c:	ldr	r1, [r0, #36]	; 0x24
 c30:	cmp	r1, #0
 c34:	beq	c7c <dump_map+0x16c>
 c38:	ldr	sl, [r0, #44]	; 0x2c
 c3c:	add	r0, r8, #3
 c40:	mov	r8, r5
 c44:	cmp	r4, r0
 c48:	bls	c68 <dump_map+0x158>
 c4c:	cmp	sl, #0
 c50:	beq	c68 <dump_map+0x158>
 c54:	mov	r0, #32
 c58:	strb	r0, [r4, #-2]
 c5c:	ldrb	r1, [r4, #-3]
 c60:	cmp	r1, #96	; 0x60
 c64:	strbeq	r0, [r4, #-3]
 c68:	ldr	r0, [r6, #28]
 c6c:	ldr	r5, [r0, #36]	; 0x24
 c70:	cmp	r5, #0
 c74:	bne	c94 <dump_map+0x184>
 c78:	b	cdc <dump_map+0x1cc>
 c7c:	mov	r8, r5
 c80:	mov	sl, #0
 c84:	ldr	r0, [r6, #28]
 c88:	ldr	r5, [r0, #36]	; 0x24
 c8c:	cmp	r5, #0
 c90:	beq	cdc <dump_map+0x1cc>
 c94:	add	r6, r4, #4
 c98:	mov	r7, #1
 c9c:	mov	r9, #32
 ca0:	ldr	r1, [r5]
 ca4:	movw	r0, #8237	; 0x202d
 ca8:	cmp	r7, sl
 cac:	mov	r2, r6
 cb0:	strh	r0, [r4, #2]
 cb4:	mov	r0, #96	; 0x60
 cb8:	movwlt	r0, #124	; 0x7c
 cbc:	strb	r0, [r4, #1]
 cc0:	mov	r0, r8
 cc4:	strb	r9, [r4]
 cc8:	bl	b10 <dump_map>
 ccc:	ldr	r5, [r5, #8]
 cd0:	add	r7, r7, #1
 cd4:	cmp	r5, #0
 cd8:	bne	ca0 <dump_map+0x190>
 cdc:	sub	sp, fp, #28
 ce0:	pop	{r4, r5, r6, r7, r8, r9, sl, fp, pc}
 ce4:	add	r1, r8, r1
 ce8:	rsb	r2, r0, #49	; 0x31
 cec:	mov	r0, r1
 cf0:	mov	r1, #45	; 0x2d
 cf4:	bl	678 <memset@plt>
 cf8:	b	bb0 <dump_map+0xa0>
 cfc:	.word	0x000001ec
 d00:	.word	0x000001ca
 d04:	.word	0x00010539
 d08:	.word	0x00010474
 d0c:	.word	0x00000144
 d10:	.word	0x0000011a

Disassembly of section .fini:

00000d14 <_fini>:
 d14:	push	{r3, lr}
 d18:	pop	{r3, pc}
