
../repos/charybdis/modules/.libs/m_map.so:     file format elf32-littlearm


Disassembly of section .init:

00000534 <_init>:
 534:	push	{r3, lr}
 538:	bl	5b4 <call_weak_fn>
 53c:	pop	{r3, pc}

Disassembly of section .plt:

00000540 <.plt>:
 540:	push	{lr}		; (str lr, [sp, #-4]!)
 544:	ldr	lr, [pc, #4]	; 550 <.plt+0x10>
 548:	add	lr, pc, lr
 54c:	ldr	pc, [lr, #8]!
 550:	.word	0x00011ab0

00000554 <__cxa_finalize@plt>:
 554:	add	ip, pc, #0, 12
 558:	add	ip, ip, #69632	; 0x11000
 55c:	ldr	pc, [ip, #2736]!	; 0xab0

00000560 <__gmon_start__@plt>:
 560:	add	ip, pc, #0, 12
 564:	add	ip, ip, #69632	; 0x11000
 568:	ldr	pc, [ip, #2728]!	; 0xaa8

0000056c <sendto_one_numeric@plt>:
 56c:	add	ip, pc, #0, 12
 570:	add	ip, ip, #69632	; 0x11000
 574:	ldr	pc, [ip, #2720]!	; 0xaa0

00000578 <strlen@plt>:
 578:	add	ip, pc, #0, 12
 57c:	add	ip, ip, #69632	; 0x11000
 580:	ldr	pc, [ip, #2712]!	; 0xa98

00000584 <snprintf@plt>:
 584:	add	ip, pc, #0, 12
 588:	add	ip, ip, #69632	; 0x11000
 58c:	ldr	pc, [ip, #2704]!	; 0xa90

00000590 <scache_send_missing@plt>:
 590:	add	ip, pc, #0, 12
 594:	add	ip, ip, #69632	; 0x11000
 598:	ldr	pc, [ip, #2696]!	; 0xa88

0000059c <rb_strlcpy@plt>:
 59c:	add	ip, pc, #0, 12
 5a0:	add	ip, ip, #69632	; 0x11000
 5a4:	ldr	pc, [ip, #2688]!	; 0xa80

000005a8 <rb_strlcat@plt>:
 5a8:	add	ip, pc, #0, 12
 5ac:	add	ip, ip, #69632	; 0x11000
 5b0:	ldr	pc, [ip, #2680]!	; 0xa78

Disassembly of section .text:

000005b4 <call_weak_fn>:
 5b4:	ldr	r3, [pc, #20]	; 5d0 <call_weak_fn+0x1c>
 5b8:	ldr	r2, [pc, #20]	; 5d4 <call_weak_fn+0x20>
 5bc:	add	r3, pc, r3
 5c0:	ldr	r2, [r3, r2]
 5c4:	cmp	r2, #0
 5c8:	bxeq	lr
 5cc:	b	560 <__gmon_start__@plt>
 5d0:	.word	0x00011a3c
 5d4:	.word	0x00000040

000005d8 <deregister_tm_clones>:
 5d8:	ldr	r0, [pc, #44]	; 60c <deregister_tm_clones+0x34>
 5dc:	ldr	r3, [pc, #44]	; 610 <deregister_tm_clones+0x38>
 5e0:	add	r0, pc, r0
 5e4:	add	r3, pc, r3
 5e8:	cmp	r3, r0
 5ec:	ldr	r3, [pc, #32]	; 614 <deregister_tm_clones+0x3c>
 5f0:	add	r3, pc, r3
 5f4:	bxeq	lr
 5f8:	ldr	r2, [pc, #24]	; 618 <deregister_tm_clones+0x40>
 5fc:	ldr	r3, [r3, r2]
 600:	cmp	r3, #0
 604:	bxeq	lr
 608:	bx	r3
 60c:	.word	0x00011ae0
 610:	.word	0x00011adc
 614:	.word	0x00011a08
 618:	.word	0x00000034

0000061c <register_tm_clones>:
 61c:	ldr	r0, [pc, #56]	; 65c <register_tm_clones+0x40>
 620:	ldr	r3, [pc, #56]	; 660 <register_tm_clones+0x44>
 624:	add	r0, pc, r0
 628:	add	r3, pc, r3
 62c:	sub	r1, r3, r0
 630:	ldr	r3, [pc, #44]	; 664 <register_tm_clones+0x48>
 634:	asr	r1, r1, #2
 638:	add	r3, pc, r3
 63c:	add	r1, r1, r1, lsr #31
 640:	asrs	r1, r1, #1
 644:	bxeq	lr
 648:	ldr	r2, [pc, #24]	; 668 <register_tm_clones+0x4c>
 64c:	ldr	r3, [r3, r2]
 650:	cmp	r3, #0
 654:	bxeq	lr
 658:	bx	r3
 65c:	.word	0x00011a9c
 660:	.word	0x00011a98
 664:	.word	0x000119c0
 668:	.word	0x00000044

0000066c <__do_global_dtors_aux>:
 66c:	ldr	r3, [pc, #76]	; 6c0 <__do_global_dtors_aux+0x54>
 670:	ldr	r2, [pc, #76]	; 6c4 <__do_global_dtors_aux+0x58>
 674:	add	r3, pc, r3
 678:	add	r2, pc, r2
 67c:	ldrb	r3, [r3]
 680:	cmp	r3, #0
 684:	bxne	lr
 688:	ldr	r3, [pc, #56]	; 6c8 <__do_global_dtors_aux+0x5c>
 68c:	push	{r4, lr}
 690:	ldr	r3, [r2, r3]
 694:	cmp	r3, #0
 698:	beq	6a8 <__do_global_dtors_aux+0x3c>
 69c:	ldr	r3, [pc, #40]	; 6cc <__do_global_dtors_aux+0x60>
 6a0:	ldr	r0, [pc, r3]
 6a4:	bl	554 <__cxa_finalize@plt>
 6a8:	bl	5d8 <deregister_tm_clones>
 6ac:	ldr	r3, [pc, #28]	; 6d0 <__do_global_dtors_aux+0x64>
 6b0:	mov	r2, #1
 6b4:	add	r3, pc, r3
 6b8:	strb	r2, [r3]
 6bc:	pop	{r4, pc}
 6c0:	.word	0x00011a4c
 6c4:	.word	0x00011980
 6c8:	.word	0x00000030
 6cc:	.word	0x000119a8
 6d0:	.word	0x00011a0c

000006d4 <frame_dummy>:
 6d4:	b	61c <register_tm_clones>

000006d8 <m_map>:
 6d8:	strd	r4, [sp, #-24]!	; 0xffffffe8
 6dc:	strd	r6, [sp, #8]
 6e0:	str	fp, [sp, #16]
 6e4:	str	lr, [sp, #20]
 6e8:	add	fp, sp, #20
 6ec:	sub	sp, sp, #16
 6f0:	str	r0, [fp, #-24]	; 0xffffffe8
 6f4:	str	r1, [fp, #-28]	; 0xffffffe4
 6f8:	str	r2, [fp, #-32]	; 0xffffffe0
 6fc:	str	r3, [fp, #-36]	; 0xffffffdc
 700:	ldr	r3, [pc, #184]	; 7c0 <m_map+0xe8>
 704:	add	r3, pc, r3
 708:	ldr	r2, [fp, #-32]	; 0xffffffe0
 70c:	ldrd	r0, [r2, #64]	; 0x40
 710:	mov	r6, #67108864	; 0x4000000
 714:	mov	r7, #0
 718:	and	r4, r0, r6
 71c:	and	r5, r1, r7
 720:	orrs	r2, r4, r5
 724:	bne	73c <m_map+0x64>
 728:	ldr	r2, [pc, #148]	; 7c4 <m_map+0xec>
 72c:	ldr	r2, [r3, r2]
 730:	ldr	r2, [r2]
 734:	cmp	r2, #0
 738:	bne	750 <m_map+0x78>
 73c:	ldr	r2, [pc, #132]	; 7c8 <m_map+0xf0>
 740:	ldr	r2, [r3, r2]
 744:	ldr	r2, [r2, #176]	; 0xb0
 748:	cmp	r2, #0
 74c:	beq	774 <m_map+0x9c>
 750:	ldr	r0, [fp, #-28]	; 0xffffffe4
 754:	bl	c0c <flattened_map>
 758:	ldr	r3, [pc, #108]	; 7cc <m_map+0xf4>
 75c:	add	r3, pc, r3
 760:	mov	r2, r3
 764:	mov	r1, #17
 768:	ldr	r0, [fp, #-28]	; 0xffffffe4
 76c:	bl	56c <sendto_one_numeric@plt>
 770:	b	7a8 <m_map+0xd0>
 774:	ldr	r2, [pc, #84]	; 7d0 <m_map+0xf8>
 778:	add	r2, pc, r2
 77c:	ldr	r1, [pc, #80]	; 7d4 <m_map+0xfc>
 780:	ldr	r3, [r3, r1]
 784:	mov	r1, r3
 788:	ldr	r0, [fp, #-28]	; 0xffffffe4
 78c:	bl	868 <dump_map>
 790:	ldr	r3, [pc, #64]	; 7d8 <m_map+0x100>
 794:	add	r3, pc, r3
 798:	mov	r2, r3
 79c:	mov	r1, #17
 7a0:	ldr	r0, [fp, #-28]	; 0xffffffe4
 7a4:	bl	56c <sendto_one_numeric@plt>
 7a8:	sub	sp, fp, #20
 7ac:	ldrd	r4, [sp]
 7b0:	ldrd	r6, [sp, #8]
 7b4:	ldr	fp, [sp, #16]
 7b8:	add	sp, sp, #20
 7bc:	pop	{pc}		; (ldr pc, [sp], #4)
 7c0:	.word	0x000118f4
 7c4:	.word	0x0000003c
 7c8:	.word	0x0000004c
 7cc:	.word	0x00000860
 7d0:	.word	0x0001194c
 7d4:	.word	0x00000048
 7d8:	.word	0x00000828

000007dc <mo_map>:
 7dc:	str	fp, [sp, #-8]!
 7e0:	str	lr, [sp, #4]
 7e4:	add	fp, sp, #4
 7e8:	sub	sp, sp, #16
 7ec:	str	r0, [fp, #-8]
 7f0:	str	r1, [fp, #-12]
 7f4:	str	r2, [fp, #-16]
 7f8:	str	r3, [fp, #-20]	; 0xffffffec
 7fc:	ldr	r1, [pc, #84]	; 858 <mo_map+0x7c>
 800:	add	r1, pc, r1
 804:	ldr	r3, [pc, #80]	; 85c <mo_map+0x80>
 808:	add	r3, pc, r3
 80c:	mov	r2, r3
 810:	ldr	r3, [pc, #72]	; 860 <mo_map+0x84>
 814:	ldr	r3, [r1, r3]
 818:	mov	r1, r3
 81c:	ldr	r0, [fp, #-12]
 820:	bl	868 <dump_map>
 824:	ldr	r0, [fp, #-12]
 828:	bl	590 <scache_send_missing@plt>
 82c:	ldr	r3, [pc, #48]	; 864 <mo_map+0x88>
 830:	add	r3, pc, r3
 834:	mov	r2, r3
 838:	mov	r1, #17
 83c:	ldr	r0, [fp, #-12]
 840:	bl	56c <sendto_one_numeric@plt>
 844:	nop	{0}
 848:	sub	sp, fp, #4
 84c:	ldr	fp, [sp]
 850:	add	sp, sp, #4
 854:	pop	{pc}		; (ldr pc, [sp], #4)
 858:	.word	0x000117f8
 85c:	.word	0x000118bc
 860:	.word	0x00000048
 864:	.word	0x0000078c

00000868 <dump_map>:
 868:	str	r4, [sp, #-12]!
 86c:	str	fp, [sp, #4]
 870:	str	lr, [sp, #8]
 874:	add	fp, sp, #8
 878:	sub	sp, sp, #52	; 0x34
 87c:	str	r0, [fp, #-40]	; 0xffffffd8
 880:	str	r1, [fp, #-44]	; 0xffffffd4
 884:	str	r2, [fp, #-48]	; 0xffffffd0
 888:	ldr	r4, [pc, #844]	; bdc <dump_map+0x374>
 88c:	add	r4, pc, r4
 890:	mov	r3, #0
 894:	str	r3, [fp, #-16]
 898:	mov	r3, #0
 89c:	str	r3, [fp, #-20]	; 0xffffffec
 8a0:	ldr	r3, [fp, #-48]	; 0xffffffd0
 8a4:	mov	r2, #0
 8a8:	strb	r2, [r3]
 8ac:	ldr	r3, [fp, #-44]	; 0xffffffd4
 8b0:	add	r3, r3, #88	; 0x58
 8b4:	mov	r2, #512	; 0x200
 8b8:	mov	r1, r3
 8bc:	ldr	r0, [fp, #-48]	; 0xffffffd0
 8c0:	bl	5a8 <rb_strlcat@plt>
 8c4:	ldr	r3, [fp, #-44]	; 0xffffffd4
 8c8:	ldrb	r3, [r3, #396]	; 0x18c
 8cc:	cmp	r3, #0
 8d0:	beq	91c <dump_map+0xb4>
 8d4:	mov	r2, #512	; 0x200
 8d8:	ldr	r3, [pc, #768]	; be0 <dump_map+0x378>
 8dc:	add	r3, pc, r3
 8e0:	mov	r1, r3
 8e4:	ldr	r0, [fp, #-48]	; 0xffffffd0
 8e8:	bl	5a8 <rb_strlcat@plt>
 8ec:	ldr	r3, [fp, #-44]	; 0xffffffd4
 8f0:	add	r3, r3, #396	; 0x18c
 8f4:	mov	r2, #512	; 0x200
 8f8:	mov	r1, r3
 8fc:	ldr	r0, [fp, #-48]	; 0xffffffd0
 900:	bl	5a8 <rb_strlcat@plt>
 904:	mov	r2, #512	; 0x200
 908:	ldr	r3, [pc, #724]	; be4 <dump_map+0x37c>
 90c:	add	r3, pc, r3
 910:	mov	r1, r3
 914:	ldr	r0, [fp, #-48]	; 0xffffffd0
 918:	bl	5a8 <rb_strlcat@plt>
 91c:	ldr	r3, [pc, #708]	; be8 <dump_map+0x380>
 920:	add	r3, pc, r3
 924:	mov	r0, r3
 928:	bl	578 <strlen@plt>
 92c:	mov	r3, r0
 930:	str	r3, [fp, #-28]	; 0xffffffe4
 934:	ldr	r2, [pc, #688]	; bec <dump_map+0x384>
 938:	add	r2, pc, r2
 93c:	ldr	r3, [fp, #-28]	; 0xffffffe4
 940:	add	r3, r2, r3
 944:	mov	r2, #32
 948:	strb	r2, [r3]
 94c:	ldr	r3, [fp, #-28]	; 0xffffffe4
 950:	cmp	r3, #49	; 0x31
 954:	bgt	998 <dump_map+0x130>
 958:	ldr	r3, [fp, #-28]	; 0xffffffe4
 95c:	add	r3, r3, #1
 960:	str	r3, [fp, #-20]	; 0xffffffec
 964:	b	98c <dump_map+0x124>
 968:	ldr	r2, [pc, #640]	; bf0 <dump_map+0x388>
 96c:	add	r2, pc, r2
 970:	ldr	r3, [fp, #-20]	; 0xffffffec
 974:	add	r3, r2, r3
 978:	mov	r2, #45	; 0x2d
 97c:	strb	r2, [r3]
 980:	ldr	r3, [fp, #-20]	; 0xffffffec
 984:	add	r3, r3, #1
 988:	str	r3, [fp, #-20]	; 0xffffffec
 98c:	ldr	r3, [fp, #-20]	; 0xffffffec
 990:	cmp	r3, #49	; 0x31
 994:	ble	968 <dump_map+0x100>
 998:	ldr	r3, [fp, #-44]	; 0xffffffd4
 99c:	ldr	r3, [r3, #28]
 9a0:	ldr	r3, [r3, #56]	; 0x38
 9a4:	mov	r2, #1000	; 0x3e8
 9a8:	mul	r2, r2, r3
 9ac:	ldr	r3, [pc, #576]	; bf4 <dump_map+0x38c>
 9b0:	ldr	r3, [r4, r3]
 9b4:	ldr	r3, [r3, #4]
 9b8:	lsr	r1, r3, #31
 9bc:	add	r3, r1, r3
 9c0:	asr	r3, r3, #1
 9c4:	add	r3, r2, r3
 9c8:	ldr	r2, [pc, #548]	; bf4 <dump_map+0x38c>
 9cc:	ldr	r2, [r4, r2]
 9d0:	ldr	r2, [r2, #4]
 9d4:	udiv	r3, r3, r2
 9d8:	str	r3, [fp, #-32]	; 0xffffffe0
 9dc:	ldr	r3, [pc, #532]	; bf8 <dump_map+0x390>
 9e0:	add	r3, pc, r3
 9e4:	add	ip, r3, #50	; 0x32
 9e8:	ldr	r3, [fp, #-44]	; 0xffffffd4
 9ec:	ldr	r3, [r3, #28]
 9f0:	ldr	lr, [r3, #56]	; 0x38
 9f4:	ldr	r2, [fp, #-32]	; 0xffffffe0
 9f8:	movw	r3, #26215	; 0x6667
 9fc:	movt	r3, #26214	; 0x6666
 a00:	smull	r1, r3, r3, r2
 a04:	asr	r1, r3, #2
 a08:	asr	r3, r2, #31
 a0c:	sub	r0, r1, r3
 a10:	ldr	r1, [fp, #-32]	; 0xffffffe0
 a14:	movw	r3, #26215	; 0x6667
 a18:	movt	r3, #26214	; 0x6666
 a1c:	smull	r2, r3, r3, r1
 a20:	asr	r2, r3, #2
 a24:	asr	r3, r1, #31
 a28:	sub	r2, r2, r3
 a2c:	mov	r3, r2
 a30:	lsl	r3, r3, #2
 a34:	add	r3, r3, r2
 a38:	lsl	r3, r3, #1
 a3c:	sub	r2, r1, r3
 a40:	str	r2, [sp, #4]
 a44:	str	r0, [sp]
 a48:	mov	r3, lr
 a4c:	ldr	r2, [pc, #424]	; bfc <dump_map+0x394>
 a50:	add	r2, pc, r2
 a54:	movw	r1, #462	; 0x1ce
 a58:	mov	r0, ip
 a5c:	bl	584 <snprintf@plt>
 a60:	ldr	r3, [pc, #408]	; c00 <dump_map+0x398>
 a64:	add	r3, pc, r3
 a68:	ldr	r2, [pc, #404]	; c04 <dump_map+0x39c>
 a6c:	add	r2, pc, r2
 a70:	mov	r1, #15
 a74:	ldr	r0, [fp, #-40]	; 0xffffffd8
 a78:	bl	56c <sendto_one_numeric@plt>
 a7c:	ldr	r3, [fp, #-44]	; 0xffffffd4
 a80:	ldr	r3, [r3, #28]
 a84:	ldr	r3, [r3, #36]	; 0x24
 a88:	cmp	r3, #0
 a8c:	beq	b00 <dump_map+0x298>
 a90:	ldr	r3, [fp, #-44]	; 0xffffffd4
 a94:	ldr	r3, [r3, #28]
 a98:	ldr	r2, [r3, #44]	; 0x2c
 a9c:	ldr	r3, [fp, #-16]
 aa0:	add	r3, r2, r3
 aa4:	str	r3, [fp, #-16]
 aa8:	ldr	r3, [fp, #-16]
 aac:	cmp	r3, #0
 ab0:	beq	b00 <dump_map+0x298>
 ab4:	ldr	r3, [pc, #332]	; c08 <dump_map+0x3a0>
 ab8:	add	r3, pc, r3
 abc:	add	r3, r3, #3
 ac0:	ldr	r2, [fp, #-48]	; 0xffffffd0
 ac4:	cmp	r2, r3
 ac8:	bls	b00 <dump_map+0x298>
 acc:	ldr	r3, [fp, #-48]	; 0xffffffd0
 ad0:	sub	r3, r3, #2
 ad4:	mov	r2, #32
 ad8:	strb	r2, [r3]
 adc:	ldr	r3, [fp, #-48]	; 0xffffffd0
 ae0:	sub	r3, r3, #3
 ae4:	ldrb	r3, [r3]
 ae8:	cmp	r3, #96	; 0x60
 aec:	bne	b00 <dump_map+0x298>
 af0:	ldr	r3, [fp, #-48]	; 0xffffffd0
 af4:	sub	r3, r3, #3
 af8:	mov	r2, #32
 afc:	strb	r2, [r3]
 b00:	mov	r3, #1
 b04:	str	r3, [fp, #-20]	; 0xffffffec
 b08:	ldr	r3, [fp, #-44]	; 0xffffffd4
 b0c:	ldr	r3, [r3, #28]
 b10:	ldr	r3, [r3, #36]	; 0x24
 b14:	str	r3, [fp, #-24]	; 0xffffffe8
 b18:	b	bb8 <dump_map+0x350>
 b1c:	ldr	r3, [fp, #-24]	; 0xffffffe8
 b20:	ldr	r3, [r3]
 b24:	str	r3, [fp, #-36]	; 0xffffffdc
 b28:	ldr	r3, [fp, #-48]	; 0xffffffd0
 b2c:	mov	r2, #32
 b30:	strb	r2, [r3]
 b34:	ldr	r2, [fp, #-20]	; 0xffffffec
 b38:	ldr	r3, [fp, #-16]
 b3c:	cmp	r2, r3
 b40:	bge	b58 <dump_map+0x2f0>
 b44:	ldr	r3, [fp, #-48]	; 0xffffffd0
 b48:	add	r3, r3, #1
 b4c:	mov	r2, #124	; 0x7c
 b50:	strb	r2, [r3]
 b54:	b	b68 <dump_map+0x300>
 b58:	ldr	r3, [fp, #-48]	; 0xffffffd0
 b5c:	add	r3, r3, #1
 b60:	mov	r2, #96	; 0x60
 b64:	strb	r2, [r3]
 b68:	ldr	r3, [fp, #-48]	; 0xffffffd0
 b6c:	add	r3, r3, #2
 b70:	mov	r2, #45	; 0x2d
 b74:	strb	r2, [r3]
 b78:	ldr	r3, [fp, #-48]	; 0xffffffd0
 b7c:	add	r3, r3, #3
 b80:	mov	r2, #32
 b84:	strb	r2, [r3]
 b88:	ldr	r3, [fp, #-48]	; 0xffffffd0
 b8c:	add	r3, r3, #4
 b90:	mov	r2, r3
 b94:	ldr	r1, [fp, #-36]	; 0xffffffdc
 b98:	ldr	r0, [fp, #-40]	; 0xffffffd8
 b9c:	bl	868 <dump_map>
 ba0:	ldr	r3, [fp, #-20]	; 0xffffffec
 ba4:	add	r3, r3, #1
 ba8:	str	r3, [fp, #-20]	; 0xffffffec
 bac:	ldr	r3, [fp, #-24]	; 0xffffffe8
 bb0:	ldr	r3, [r3, #8]
 bb4:	str	r3, [fp, #-24]	; 0xffffffe8
 bb8:	ldr	r3, [fp, #-24]	; 0xffffffe8
 bbc:	cmp	r3, #0
 bc0:	bne	b1c <dump_map+0x2b4>
 bc4:	nop	{0}
 bc8:	sub	sp, fp, #8
 bcc:	ldr	r4, [sp]
 bd0:	ldr	fp, [sp, #4]
 bd4:	add	sp, sp, #8
 bd8:	pop	{pc}		; (ldr pc, [sp], #4)
 bdc:	.word	0x0001176c
 be0:	.word	0x000006f0
 be4:	.word	0x000006c4
 be8:	.word	0x000117a4
 bec:	.word	0x0001178c
 bf0:	.word	0x00011758
 bf4:	.word	0x00000038
 bf8:	.word	0x000116e4
 bfc:	.word	0x00000584
 c00:	.word	0x00011660
 c04:	.word	0x00000584
 c08:	.word	0x0001160c

00000c0c <flattened_map>:
 c0c:	str	r4, [sp, #-20]!	; 0xffffffec
 c10:	strd	r6, [sp, #4]
 c14:	str	fp, [sp, #12]
 c18:	str	lr, [sp, #16]
 c1c:	add	fp, sp, #16
 c20:	sub	sp, sp, #556	; 0x22c
 c24:	str	r0, [fp, #-560]	; 0xfffffdd0
 c28:	ldr	r4, [pc, #796]	; f4c <flattened_map+0x340>
 c2c:	add	r4, pc, r4
 c30:	mov	r3, #0
 c34:	str	r3, [fp, #-32]	; 0xffffffe0
 c38:	sub	r0, fp, #552	; 0x228
 c3c:	mov	r2, #512	; 0x200
 c40:	ldr	r3, [pc, #776]	; f50 <flattened_map+0x344>
 c44:	ldr	r3, [r4, r3]
 c48:	add	r1, r3, #88	; 0x58
 c4c:	bl	59c <rb_strlcpy@plt>
 c50:	sub	r3, fp, #552	; 0x228
 c54:	mov	r0, r3
 c58:	bl	578 <strlen@plt>
 c5c:	mov	r3, r0
 c60:	str	r3, [fp, #-36]	; 0xffffffdc
 c64:	sub	r2, fp, #552	; 0x228
 c68:	ldr	r3, [fp, #-36]	; 0xffffffdc
 c6c:	add	r3, r2, r3
 c70:	mov	r2, #32
 c74:	strb	r2, [r3]
 c78:	ldr	r3, [fp, #-36]	; 0xffffffdc
 c7c:	cmp	r3, #49	; 0x31
 c80:	bgt	cc0 <flattened_map+0xb4>
 c84:	ldr	r3, [fp, #-36]	; 0xffffffdc
 c88:	add	r3, r3, #1
 c8c:	str	r3, [fp, #-28]	; 0xffffffe4
 c90:	b	cb4 <flattened_map+0xa8>
 c94:	sub	r2, fp, #552	; 0x228
 c98:	ldr	r3, [fp, #-28]	; 0xffffffe4
 c9c:	add	r3, r2, r3
 ca0:	mov	r2, #45	; 0x2d
 ca4:	strb	r2, [r3]
 ca8:	ldr	r3, [fp, #-28]	; 0xffffffe4
 cac:	add	r3, r3, #1
 cb0:	str	r3, [fp, #-28]	; 0xffffffe4
 cb4:	ldr	r3, [fp, #-28]	; 0xffffffe4
 cb8:	cmp	r3, #49	; 0x31
 cbc:	ble	c94 <flattened_map+0x88>
 cc0:	sub	r0, fp, #552	; 0x228
 cc4:	add	r0, r0, #50	; 0x32
 cc8:	ldr	r3, [pc, #640]	; f50 <flattened_map+0x344>
 ccc:	ldr	r3, [r4, r3]
 cd0:	ldr	r3, [r3, #28]
 cd4:	ldr	r2, [r3, #56]	; 0x38
 cd8:	ldr	r3, [pc, #624]	; f50 <flattened_map+0x344>
 cdc:	ldr	r3, [r4, r3]
 ce0:	ldr	r3, [r3, #28]
 ce4:	ldr	r3, [r3, #56]	; 0x38
 ce8:	vmov	s15, r3
 cec:	vcvt.f32.u32	s15, s15
 cf0:	vldr	s14, [pc, #592]	; f48 <flattened_map+0x33c>
 cf4:	vmul.f32	s13, s15, s14
 cf8:	ldr	r3, [pc, #596]	; f54 <flattened_map+0x348>
 cfc:	ldr	r3, [r4, r3]
 d00:	ldr	r3, [r3, #4]
 d04:	vmov	s15, r3
 d08:	vcvt.f32.s32	s14, s15
 d0c:	vdiv.f32	s15, s13, s14
 d10:	vcvt.f64.f32	d7, s15
 d14:	vstr	d7, [sp]
 d18:	mov	r3, r2
 d1c:	ldr	r2, [pc, #564]	; f58 <flattened_map+0x34c>
 d20:	add	r2, pc, r2
 d24:	movw	r1, #462	; 0x1ce
 d28:	bl	584 <snprintf@plt>
 d2c:	sub	r3, fp, #552	; 0x228
 d30:	ldr	r2, [pc, #548]	; f5c <flattened_map+0x350>
 d34:	add	r2, pc, r2
 d38:	mov	r1, #15
 d3c:	ldr	r0, [fp, #-560]	; 0xfffffdd0
 d40:	bl	56c <sendto_one_numeric@plt>
 d44:	ldr	r3, [pc, #532]	; f60 <flattened_map+0x354>
 d48:	ldr	r3, [r4, r3]
 d4c:	ldr	r3, [r3]
 d50:	str	r3, [fp, #-24]	; 0xffffffe8
 d54:	b	f20 <flattened_map+0x314>
 d58:	ldr	r3, [fp, #-24]	; 0xffffffe8
 d5c:	ldr	r3, [r3]
 d60:	str	r3, [fp, #-40]	; 0xffffffd8
 d64:	ldr	r3, [fp, #-32]	; 0xffffffe0
 d68:	add	r3, r3, #1
 d6c:	str	r3, [fp, #-32]	; 0xffffffe0
 d70:	ldr	r3, [fp, #-40]	; 0xffffffd8
 d74:	ldrh	r3, [r3, #80]	; 0x50
 d78:	cmp	r3, #4
 d7c:	beq	f08 <flattened_map+0x2fc>
 d80:	ldr	r3, [pc, #476]	; f64 <flattened_map+0x358>
 d84:	ldr	r3, [r4, r3]
 d88:	ldr	r3, [r3, #12]
 d8c:	cmp	r3, #0
 d90:	bne	db4 <flattened_map+0x1a8>
 d94:	ldr	r3, [fp, #-40]	; 0xffffffd8
 d98:	ldrd	r2, [r3, #64]	; 0x40
 d9c:	mov	r0, #2048	; 0x800
 da0:	mov	r1, #0
 da4:	and	r6, r2, r0
 da8:	and	r7, r3, r1
 dac:	orrs	r3, r6, r7
 db0:	bne	f10 <flattened_map+0x304>
 db4:	ldr	r3, [pc, #420]	; f60 <flattened_map+0x354>
 db8:	ldr	r3, [r4, r3]
 dbc:	ldr	r3, [r3, #8]
 dc0:	ldr	r2, [fp, #-32]	; 0xffffffe0
 dc4:	cmp	r2, r3
 dc8:	bne	de8 <flattened_map+0x1dc>
 dcc:	sub	r3, fp, #552	; 0x228
 dd0:	mov	r2, #512	; 0x200
 dd4:	ldr	r1, [pc, #396]	; f68 <flattened_map+0x35c>
 dd8:	add	r1, pc, r1
 ddc:	mov	r0, r3
 de0:	bl	59c <rb_strlcpy@plt>
 de4:	b	e00 <flattened_map+0x1f4>
 de8:	sub	r3, fp, #552	; 0x228
 dec:	mov	r2, #512	; 0x200
 df0:	ldr	r1, [pc, #372]	; f6c <flattened_map+0x360>
 df4:	add	r1, pc, r1
 df8:	mov	r0, r3
 dfc:	bl	59c <rb_strlcpy@plt>
 e00:	ldr	r3, [fp, #-40]	; 0xffffffd8
 e04:	add	r1, r3, #88	; 0x58
 e08:	sub	r3, fp, #552	; 0x228
 e0c:	mov	r2, #512	; 0x200
 e10:	mov	r0, r3
 e14:	bl	5a8 <rb_strlcat@plt>
 e18:	sub	r3, fp, #552	; 0x228
 e1c:	mov	r0, r3
 e20:	bl	578 <strlen@plt>
 e24:	mov	r3, r0
 e28:	str	r3, [fp, #-36]	; 0xffffffdc
 e2c:	sub	r2, fp, #552	; 0x228
 e30:	ldr	r3, [fp, #-36]	; 0xffffffdc
 e34:	add	r3, r2, r3
 e38:	mov	r2, #32
 e3c:	strb	r2, [r3]
 e40:	ldr	r3, [fp, #-36]	; 0xffffffdc
 e44:	cmp	r3, #49	; 0x31
 e48:	bgt	e88 <flattened_map+0x27c>
 e4c:	ldr	r3, [fp, #-36]	; 0xffffffdc
 e50:	add	r3, r3, #1
 e54:	str	r3, [fp, #-28]	; 0xffffffe4
 e58:	b	e7c <flattened_map+0x270>
 e5c:	sub	r2, fp, #552	; 0x228
 e60:	ldr	r3, [fp, #-28]	; 0xffffffe4
 e64:	add	r3, r2, r3
 e68:	mov	r2, #45	; 0x2d
 e6c:	strb	r2, [r3]
 e70:	ldr	r3, [fp, #-28]	; 0xffffffe4
 e74:	add	r3, r3, #1
 e78:	str	r3, [fp, #-28]	; 0xffffffe4
 e7c:	ldr	r3, [fp, #-28]	; 0xffffffe4
 e80:	cmp	r3, #49	; 0x31
 e84:	ble	e5c <flattened_map+0x250>
 e88:	sub	r0, fp, #552	; 0x228
 e8c:	add	r0, r0, #50	; 0x32
 e90:	ldr	r3, [fp, #-40]	; 0xffffffd8
 e94:	ldr	r3, [r3, #28]
 e98:	ldr	r2, [r3, #56]	; 0x38
 e9c:	ldr	r3, [fp, #-40]	; 0xffffffd8
 ea0:	ldr	r3, [r3, #28]
 ea4:	ldr	r3, [r3, #56]	; 0x38
 ea8:	vmov	s15, r3
 eac:	vcvt.f32.u32	s15, s15
 eb0:	vldr	s14, [pc, #144]	; f48 <flattened_map+0x33c>
 eb4:	vmul.f32	s13, s15, s14
 eb8:	ldr	r3, [pc, #148]	; f54 <flattened_map+0x348>
 ebc:	ldr	r3, [r4, r3]
 ec0:	ldr	r3, [r3, #4]
 ec4:	vmov	s15, r3
 ec8:	vcvt.f32.s32	s14, s15
 ecc:	vdiv.f32	s15, s13, s14
 ed0:	vcvt.f64.f32	d7, s15
 ed4:	vstr	d7, [sp]
 ed8:	mov	r3, r2
 edc:	ldr	r2, [pc, #140]	; f70 <flattened_map+0x364>
 ee0:	add	r2, pc, r2
 ee4:	movw	r1, #462	; 0x1ce
 ee8:	bl	584 <snprintf@plt>
 eec:	sub	r3, fp, #552	; 0x228
 ef0:	ldr	r2, [pc, #124]	; f74 <flattened_map+0x368>
 ef4:	add	r2, pc, r2
 ef8:	mov	r1, #15
 efc:	ldr	r0, [fp, #-560]	; 0xfffffdd0
 f00:	bl	56c <sendto_one_numeric@plt>
 f04:	b	f14 <flattened_map+0x308>
 f08:	nop	{0}
 f0c:	b	f14 <flattened_map+0x308>
 f10:	nop	{0}
 f14:	ldr	r3, [fp, #-24]	; 0xffffffe8
 f18:	ldr	r3, [r3, #8]
 f1c:	str	r3, [fp, #-24]	; 0xffffffe8
 f20:	ldr	r3, [fp, #-24]	; 0xffffffe8
 f24:	cmp	r3, #0
 f28:	bne	d58 <flattened_map+0x14c>
 f2c:	nop	{0}
 f30:	sub	sp, fp, #16
 f34:	ldr	r4, [sp]
 f38:	ldrd	r6, [sp, #4]
 f3c:	ldr	fp, [sp, #12]
 f40:	add	sp, sp, #16
 f44:	pop	{pc}		; (ldr pc, [sp], #4)
 f48:	.word	0x42c80000
 f4c:	.word	0x000113cc
 f50:	.word	0x00000048
 f54:	.word	0x00000038
 f58:	.word	0x000002d4
 f5c:	.word	0x000002bc
 f60:	.word	0x0000002c
 f64:	.word	0x0000003c
 f68:	.word	0x00000238
 f6c:	.word	0x00000224
 f70:	.word	0x00000114
 f74:	.word	0x000000fc

Disassembly of section .fini:

00000f78 <_fini>:
 f78:	push	{r3, lr}
 f7c:	pop	{r3, pc}
