
../compcert-repos/dvidelabs-flatcc-3b39ef7/src/compiler/CMakeFiles/flatcc.dir/hash_tables/symbol_table.c.o:     file format elf32-littlearm


Disassembly of section .text:

00000000 <fb_symbol_table_clear>:
   0:	push	{r4, sl, fp, lr}
   4:	add	fp, sp, #8
   8:	mov	r4, r0
   c:	ldr	r0, [r0]
  10:	cmp	r0, #0
  14:	beq	1c <fb_symbol_table_clear+0x1c>
  18:	bl	0 <free>
  1c:	vmov.i32	q8, #0	; 0x00000000
  20:	vst1.32	{d16-d17}, [r4]
  24:	pop	{r4, sl, fp, pc}

00000028 <fb_symbol_table_destroy>:
  28:	push	{r4, r5, r6, r7, r8, sl, fp, lr}
  2c:	add	fp, sp, #24
  30:	mov	r4, r0
  34:	cmp	r1, #0
  38:	ldrne	r0, [r4, #12]
  3c:	cmpne	r0, #0
  40:	beq	7c <fb_symbol_table_destroy+0x54>
  44:	ldr	r7, [r4]
  48:	mov	r8, r2
  4c:	mov	r6, r1
  50:	mov	r5, #0
  54:	ldr	r1, [r7, r5, lsl #2]
  58:	orr	r2, r1, #2
  5c:	cmp	r2, #2
  60:	beq	70 <fb_symbol_table_destroy+0x48>
  64:	mov	r0, r8
  68:	blx	r6
  6c:	ldr	r0, [r4, #12]
  70:	add	r5, r5, #1
  74:	cmp	r5, r0
  78:	bcc	54 <fb_symbol_table_destroy+0x2c>
  7c:	ldr	r0, [r4]
  80:	cmp	r0, #0
  84:	beq	8c <fb_symbol_table_destroy+0x64>
  88:	bl	0 <free>
  8c:	vmov.i32	q8, #0	; 0x00000000
  90:	vst1.32	{d16-d17}, [r4]
  94:	pop	{r4, r5, r6, r7, r8, sl, fp, pc}

00000098 <fb_symbol_table_init>:
  98:	push	{r4, r5, fp, lr}
  9c:	add	fp, sp, #8
  a0:	mov	r4, r0
  a4:	mov	r2, #4
  a8:	mov	r0, #179	; 0xb3
  ac:	mul	r3, r2, r0
  b0:	mov	r5, r2
  b4:	lsl	r2, r2, #1
  b8:	cmp	r1, r3, lsr #8
  bc:	bhi	ac <fb_symbol_table_init+0x14>
  c0:	mov	r0, r5
  c4:	mov	r1, #4
  c8:	bl	0 <calloc>
  cc:	cmp	r0, #0
  d0:	str	r0, [r4]
  d4:	movne	r0, #0
  d8:	strne	r0, [r4, #4]
  dc:	strne	r0, [r4, #8]
  e0:	strne	r5, [r4, #12]
  e4:	popne	{r4, r5, fp, pc}
  e8:	mvn	r0, #0
  ec:	pop	{r4, r5, fp, pc}

000000f0 <fb_symbol_table_resize>:
  f0:	b	f4 <ht_resize>

000000f4 <ht_resize>:
  f4:	push	{r4, r5, r6, r7, r8, sl, fp, lr}
  f8:	add	fp, sp, #24
  fc:	sub	sp, sp, #24
 100:	mov	r4, r0
 104:	ldr	r5, [r0]
 108:	ldr	r0, [r0, #8]
 10c:	mov	r2, #4
 110:	cmp	r0, r1
 114:	movhi	r1, r0
 118:	mov	r0, #179	; 0xb3
 11c:	mul	r3, r2, r0
 120:	mov	r6, r2
 124:	lsl	r2, r2, #1
 128:	cmp	r1, r3, lsr #8
 12c:	bhi	11c <ht_resize+0x28>
 130:	mov	r0, r6
 134:	mov	r1, #4
 138:	bl	0 <calloc>
 13c:	cmp	r0, #0
 140:	str	r0, [sp, #8]
 144:	mvneq	r0, #0
 148:	subeq	sp, fp, #24
 14c:	popeq	{r4, r5, r6, r7, r8, sl, fp, pc}
 150:	mov	r7, #0
 154:	str	r6, [sp, #20]
 158:	str	r7, [sp, #12]
 15c:	str	r7, [sp, #16]
 160:	ldr	r0, [r4, #12]
 164:	cmp	r0, #0
 168:	beq	1ac <ht_resize+0xb8>
 16c:	mov	r8, #3
 170:	add	r6, sp, #8
 174:	ldr	r3, [r5, r7, lsl #2]
 178:	orr	r1, r3, #2
 17c:	cmp	r1, #2
 180:	beq	19c <ht_resize+0xa8>
 184:	ldr	r0, [r3, #4]
 188:	ldm	r0, {r1, r2}
 18c:	mov	r0, r6
 190:	str	r8, [sp]
 194:	bl	1d8 <ht_insert>
 198:	ldr	r0, [r4, #12]
 19c:	add	r7, r7, #1
 1a0:	cmp	r7, r0
 1a4:	bcc	174 <ht_resize+0x80>
 1a8:	ldr	r5, [r4]
 1ac:	cmp	r5, #0
 1b0:	beq	1bc <ht_resize+0xc8>
 1b4:	mov	r0, r5
 1b8:	bl	0 <free>
 1bc:	add	r0, sp, #8
 1c0:	vld1.64	{d16-d17}, [r0]
 1c4:	mov	r0, #0
 1c8:	vst1.32	{d16-d17}, [r4]
 1cc:	sub	sp, fp, #24
 1d0:	pop	{r4, r5, r6, r7, r8, sl, fp, pc}

000001d4 <fb_symbol_table_insert>:
 1d4:	b	1d8 <ht_insert>

000001d8 <ht_insert>:
 1d8:	push	{r4, r5, r6, r7, r8, r9, sl, fp, lr}
 1dc:	add	fp, sp, #28
 1e0:	sub	sp, sp, #36	; 0x24
 1e4:	cmp	r3, #2
 1e8:	str	r1, [sp, #20]
 1ec:	beq	364 <ht_insert+0x18c>
 1f0:	mov	sl, r3
 1f4:	cmp	r3, #1
 1f8:	beq	384 <ht_insert+0x1ac>
 1fc:	cmp	sl, #0
 200:	beq	3a4 <ht_insert+0x1cc>
 204:	mov	r7, r0
 208:	ldr	r0, [r0, #8]
 20c:	mov	r1, #179	; 0xb3
 210:	mov	r6, r2
 214:	ldr	r4, [r7, #12]
 218:	mul	r1, r4, r1
 21c:	cmp	r0, r1, lsr #8
 220:	bcc	23c <ht_insert+0x64>
 224:	lsl	r1, r0, #1
 228:	mov	r0, r7
 22c:	bl	f4 <ht_resize>
 230:	cmp	r0, #0
 234:	bne	3c4 <ht_insert+0x1ec>
 238:	ldr	r4, [r7, #12]
 23c:	add	r0, sp, #24
 240:	ldr	r9, [r7]
 244:	movw	r1, #15186	; 0x3b52
 248:	mov	r2, r6
 24c:	mov	r3, #0
 250:	mov	r8, #0
 254:	str	r0, [sp, #4]
 258:	ldr	r0, [sp, #20]
 25c:	movt	r1, #12137	; 0x2f69
 260:	str	r1, [sp]
 264:	bl	0 <cmetrohash64_1>
 268:	ldr	r2, [fp, #8]
 26c:	ldr	r1, [sp, #24]
 270:	sub	r5, r4, #1
 274:	orr	r2, r2, #1
 278:	and	r0, r5, r1
 27c:	cmp	r2, #3
 280:	bne	2b8 <ht_insert+0xe0>
 284:	ldr	r2, [r7, #8]
 288:	add	r2, r2, #1
 28c:	str	r2, [r7, #8]
 290:	b	298 <ht_insert+0xc0>
 294:	and	r0, r1, r5
 298:	mov	r7, r9
 29c:	add	r1, r1, #1
 2a0:	ldr	r0, [r7, r0, lsl #2]!
 2a4:	orr	r0, r0, #2
 2a8:	cmp	r0, #2
 2ac:	bne	294 <ht_insert+0xbc>
 2b0:	mov	r4, #0
 2b4:	b	340 <ht_insert+0x168>
 2b8:	str	sl, [sp, #16]
 2bc:	add	sl, r1, #1
 2c0:	str	r7, [sp, #12]
 2c4:	b	2d0 <ht_insert+0xf8>
 2c8:	and	r0, sl, r5
 2cc:	add	sl, sl, #1
 2d0:	mov	r7, r9
 2d4:	ldr	r4, [r7, r0, lsl #2]!
 2d8:	cmp	r4, #2
 2dc:	beq	314 <ht_insert+0x13c>
 2e0:	cmp	r4, #0
 2e4:	beq	320 <ht_insert+0x148>
 2e8:	ldr	r0, [r4, #4]
 2ec:	ldr	r1, [r0, #4]
 2f0:	cmp	r1, r6
 2f4:	bne	2c8 <ht_insert+0xf0>
 2f8:	ldr	r1, [r0]
 2fc:	ldr	r0, [sp, #20]
 300:	mov	r2, r6
 304:	bl	0 <memcmp>
 308:	cmp	r0, #0
 30c:	bne	2c8 <ht_insert+0xf0>
 310:	b	350 <ht_insert+0x178>
 314:	cmp	r8, #0
 318:	moveq	r8, r7
 31c:	b	2c8 <ht_insert+0xf0>
 320:	ldr	r1, [sp, #12]
 324:	ldr	sl, [sp, #16]
 328:	cmp	r8, #0
 32c:	mov	r4, #0
 330:	movne	r7, r8
 334:	ldr	r0, [r1, #8]
 338:	add	r0, r0, #1
 33c:	str	r0, [r1, #8]
 340:	str	sl, [r7]
 344:	mov	r0, r4
 348:	sub	sp, fp, #28
 34c:	pop	{r4, r5, r6, r7, r8, r9, sl, fp, pc}
 350:	ldr	r0, [fp, #8]
 354:	ldr	sl, [sp, #16]
 358:	cmp	r0, #0
 35c:	streq	sl, [r7]
 360:	b	344 <ht_insert+0x16c>
 364:	movw	r0, #0
 368:	movw	r1, #0
 36c:	movw	r3, #0
 370:	mov	r2, #115	; 0x73
 374:	movt	r0, #0
 378:	movt	r1, #0
 37c:	movt	r3, #0
 380:	bl	0 <__assert_fail>
 384:	movw	r0, #0
 388:	movw	r1, #0
 38c:	movw	r3, #0
 390:	mov	r2, #116	; 0x74
 394:	movt	r0, #0
 398:	movt	r1, #0
 39c:	movt	r3, #0
 3a0:	bl	0 <__assert_fail>
 3a4:	movw	r0, #0
 3a8:	movw	r1, #0
 3ac:	movw	r3, #0
 3b0:	mov	r2, #114	; 0x72
 3b4:	movt	r0, #0
 3b8:	movt	r1, #0
 3bc:	movt	r3, #0
 3c0:	bl	0 <__assert_fail>
 3c4:	movw	r0, #0
 3c8:	movw	r1, #0
 3cc:	movw	r2, #0
 3d0:	movt	r0, #0
 3d4:	movt	r1, #0
 3d8:	movt	r2, #0
 3dc:	ldr	r0, [r0]
 3e0:	bl	0 <fprintf>
 3e4:	mov	r0, #1
 3e8:	bl	0 <exit>

000003ec <fb_symbol_table_insert_item>:
 3ec:	push	{fp, lr}
 3f0:	mov	fp, sp
 3f4:	sub	sp, sp, #8
 3f8:	ldr	r3, [r1, #4]
 3fc:	mov	lr, r1
 400:	ldm	r3, {r1, ip}
 404:	str	r2, [sp]
 408:	mov	r3, lr
 40c:	mov	r2, ip
 410:	bl	1d8 <ht_insert>
 414:	mov	sp, fp
 418:	pop	{fp, pc}

0000041c <fb_symbol_table_find>:
 41c:	push	{r4, r5, r6, r7, r8, r9, fp, lr}
 420:	add	fp, sp, #24
 424:	sub	sp, sp, #16
 428:	ldr	r7, [r0]
 42c:	cmp	r7, #0
 430:	beq	4b4 <fb_symbol_table_find+0x98>
 434:	ldr	r4, [r0, #12]
 438:	mov	r8, r1
 43c:	movw	r1, #15186	; 0x3b52
 440:	add	r0, sp, #8
 444:	mov	r3, #0
 448:	mov	r9, r2
 44c:	movt	r1, #12137	; 0x2f69
 450:	str	r0, [sp, #4]
 454:	mov	r0, r8
 458:	str	r1, [sp]
 45c:	bl	0 <cmetrohash64_1>
 460:	ldr	r5, [sp, #8]
 464:	sub	r4, r4, #1
 468:	b	470 <fb_symbol_table_find+0x54>
 46c:	add	r5, r5, #1
 470:	and	r0, r5, r4
 474:	ldr	r6, [r7, r0, lsl #2]
 478:	cmp	r6, #2
 47c:	beq	46c <fb_symbol_table_find+0x50>
 480:	cmp	r6, #0
 484:	beq	4b4 <fb_symbol_table_find+0x98>
 488:	ldr	r0, [r6, #4]
 48c:	ldr	r1, [r0, #4]
 490:	cmp	r1, r9
 494:	bne	46c <fb_symbol_table_find+0x50>
 498:	ldr	r1, [r0]
 49c:	mov	r0, r8
 4a0:	mov	r2, r9
 4a4:	bl	0 <memcmp>
 4a8:	cmp	r0, #0
 4ac:	bne	46c <fb_symbol_table_find+0x50>
 4b0:	b	4b8 <fb_symbol_table_find+0x9c>
 4b4:	mov	r6, #0
 4b8:	mov	r0, r6
 4bc:	sub	sp, fp, #24
 4c0:	pop	{r4, r5, r6, r7, r8, r9, fp, pc}

000004c4 <fb_symbol_table_find_item>:
 4c4:	push	{r4, r5, r6, r7, r8, r9, fp, lr}
 4c8:	add	fp, sp, #24
 4cc:	sub	sp, sp, #16
 4d0:	ldr	r7, [r0]
 4d4:	cmp	r7, #0
 4d8:	beq	560 <fb_symbol_table_find_item+0x9c>
 4dc:	ldr	r1, [r1, #4]
 4e0:	mov	r3, #0
 4e4:	ldm	r1, {r8, r9}
 4e8:	ldr	r5, [r0, #12]
 4ec:	movw	r1, #15186	; 0x3b52
 4f0:	add	r0, sp, #8
 4f4:	movt	r1, #12137	; 0x2f69
 4f8:	str	r0, [sp, #4]
 4fc:	str	r1, [sp]
 500:	mov	r0, r8
 504:	mov	r2, r9
 508:	bl	0 <cmetrohash64_1>
 50c:	ldr	r4, [sp, #8]
 510:	sub	r5, r5, #1
 514:	b	51c <fb_symbol_table_find_item+0x58>
 518:	add	r4, r4, #1
 51c:	and	r0, r4, r5
 520:	ldr	r6, [r7, r0, lsl #2]
 524:	cmp	r6, #2
 528:	beq	518 <fb_symbol_table_find_item+0x54>
 52c:	cmp	r6, #0
 530:	beq	560 <fb_symbol_table_find_item+0x9c>
 534:	ldr	r0, [r6, #4]
 538:	ldr	r1, [r0, #4]
 53c:	cmp	r1, r9
 540:	bne	518 <fb_symbol_table_find_item+0x54>
 544:	ldr	r1, [r0]
 548:	mov	r0, r8
 54c:	mov	r2, r9
 550:	bl	0 <memcmp>
 554:	cmp	r0, #0
 558:	bne	518 <fb_symbol_table_find_item+0x54>
 55c:	b	564 <fb_symbol_table_find_item+0xa0>
 560:	mov	r6, #0
 564:	mov	r0, r6
 568:	sub	sp, fp, #24
 56c:	pop	{r4, r5, r6, r7, r8, r9, fp, pc}

00000570 <fb_symbol_table_remove>:
 570:	push	{r4, r5, r6, r7, r8, r9, sl, fp, lr}
 574:	add	fp, sp, #28
 578:	sub	sp, sp, #28
 57c:	ldr	r4, [r0]
 580:	cmp	r4, #0
 584:	beq	624 <fb_symbol_table_remove+0xb4>
 588:	ldr	r5, [r0, #12]
 58c:	mov	r9, r1
 590:	movw	r1, #15186	; 0x3b52
 594:	str	r0, [sp, #12]
 598:	add	r0, sp, #16
 59c:	mov	r3, #0
 5a0:	mov	sl, r2
 5a4:	movt	r1, #12137	; 0x2f69
 5a8:	str	r0, [sp, #4]
 5ac:	mov	r0, r9
 5b0:	str	r1, [sp]
 5b4:	bl	0 <cmetrohash64_1>
 5b8:	ldr	r6, [sp, #16]
 5bc:	sub	r5, r5, #1
 5c0:	b	5c8 <fb_symbol_table_remove+0x58>
 5c4:	add	r6, r6, #1
 5c8:	and	r8, r6, r5
 5cc:	ldr	r7, [r4, r8, lsl #2]
 5d0:	cmp	r7, #2
 5d4:	beq	5c4 <fb_symbol_table_remove+0x54>
 5d8:	cmp	r7, #0
 5dc:	beq	624 <fb_symbol_table_remove+0xb4>
 5e0:	ldr	r0, [r7, #4]
 5e4:	ldr	r1, [r0, #4]
 5e8:	cmp	r1, sl
 5ec:	bne	5c4 <fb_symbol_table_remove+0x54>
 5f0:	ldr	r1, [r0]
 5f4:	mov	r0, r9
 5f8:	mov	r2, sl
 5fc:	bl	0 <memcmp>
 600:	cmp	r0, #0
 604:	bne	5c4 <fb_symbol_table_remove+0x54>
 608:	ldr	r1, [sp, #12]
 60c:	mov	r0, #2
 610:	str	r0, [r4, r8, lsl #2]
 614:	ldr	r0, [r1, #8]
 618:	sub	r0, r0, #1
 61c:	str	r0, [r1, #8]
 620:	b	628 <fb_symbol_table_remove+0xb8>
 624:	mov	r7, #0
 628:	mov	r0, r7
 62c:	sub	sp, fp, #28
 630:	pop	{r4, r5, r6, r7, r8, r9, sl, fp, pc}

00000634 <fb_symbol_table_remove_item>:
 634:	push	{r4, r5, r6, r7, r8, r9, sl, fp, lr}
 638:	add	fp, sp, #28
 63c:	sub	sp, sp, #28
 640:	ldr	r4, [r0]
 644:	cmp	r4, #0
 648:	beq	6ec <fb_symbol_table_remove_item+0xb8>
 64c:	ldr	r1, [r1, #4]
 650:	mov	r3, #0
 654:	ldm	r1, {r9, sl}
 658:	ldr	r6, [r0, #12]
 65c:	movw	r1, #15186	; 0x3b52
 660:	str	r0, [sp, #12]
 664:	add	r0, sp, #16
 668:	movt	r1, #12137	; 0x2f69
 66c:	str	r0, [sp, #4]
 670:	str	r1, [sp]
 674:	mov	r0, r9
 678:	mov	r2, sl
 67c:	bl	0 <cmetrohash64_1>
 680:	ldr	r5, [sp, #16]
 684:	sub	r6, r6, #1
 688:	b	690 <fb_symbol_table_remove_item+0x5c>
 68c:	add	r5, r5, #1
 690:	and	r8, r5, r6
 694:	ldr	r7, [r4, r8, lsl #2]
 698:	cmp	r7, #2
 69c:	beq	68c <fb_symbol_table_remove_item+0x58>
 6a0:	cmp	r7, #0
 6a4:	beq	6ec <fb_symbol_table_remove_item+0xb8>
 6a8:	ldr	r0, [r7, #4]
 6ac:	ldr	r1, [r0, #4]
 6b0:	cmp	r1, sl
 6b4:	bne	68c <fb_symbol_table_remove_item+0x58>
 6b8:	ldr	r1, [r0]
 6bc:	mov	r0, r9
 6c0:	mov	r2, sl
 6c4:	bl	0 <memcmp>
 6c8:	cmp	r0, #0
 6cc:	bne	68c <fb_symbol_table_remove_item+0x58>
 6d0:	ldr	r1, [sp, #12]
 6d4:	mov	r0, #2
 6d8:	str	r0, [r4, r8, lsl #2]
 6dc:	ldr	r0, [r1, #8]
 6e0:	sub	r0, r0, #1
 6e4:	str	r0, [r1, #8]
 6e8:	b	6f0 <fb_symbol_table_remove_item+0xbc>
 6ec:	mov	r7, #0
 6f0:	mov	r0, r7
 6f4:	sub	sp, fp, #28
 6f8:	pop	{r4, r5, r6, r7, r8, r9, sl, fp, pc}

000006fc <fb_symbol_table_visit>:
 6fc:	push	{r4, r5, r6, r7, r8, sl, fp, lr}
 700:	add	fp, sp, #24
 704:	mov	r6, r0
 708:	ldr	r0, [r0, #12]
 70c:	cmp	r0, #0
 710:	popeq	{r4, r5, r6, r7, r8, sl, fp, pc}
 714:	ldr	r7, [r6]
 718:	mov	r8, r2
 71c:	mov	r5, r1
 720:	mov	r4, #0
 724:	ldr	r1, [r7, r4, lsl #2]
 728:	orr	r2, r1, #2
 72c:	cmp	r2, #2
 730:	beq	740 <fb_symbol_table_visit+0x44>
 734:	mov	r0, r8
 738:	blx	r5
 73c:	ldr	r0, [r6, #12]
 740:	add	r4, r4, #1
 744:	cmp	r4, r0
 748:	bcc	724 <fb_symbol_table_visit+0x28>
 74c:	pop	{r4, r5, r6, r7, r8, sl, fp, pc}
