
../repos/charybdis/modules/.libs/m_map.so:     file format elf32-littlearm


Disassembly of section .init:

0000061c <_init>:
 61c:	push	{r3, lr}
 620:	bl	6a8 <call_weak_fn>
 624:	pop	{r3, pc}

Disassembly of section .plt:

00000628 <.plt>:
 628:	push	{lr}		; (str lr, [sp, #-4]!)
 62c:	ldr	lr, [pc, #4]	; 638 <.plt+0x10>
 630:	add	lr, pc, lr
 634:	ldr	pc, [lr, #8]!
 638:	.word	0x000109c8

0000063c <__cxa_finalize@plt>:
 63c:	add	ip, pc, #0, 12
 640:	add	ip, ip, #16, 20	; 0x10000
 644:	ldr	pc, [ip, #2504]!	; 0x9c8

00000648 <__gmon_start__@plt>:
 648:	add	ip, pc, #0, 12
 64c:	add	ip, ip, #16, 20	; 0x10000
 650:	ldr	pc, [ip, #2496]!	; 0x9c0

00000654 <sendto_one_numeric@plt>:
 654:	add	ip, pc, #0, 12
 658:	add	ip, ip, #16, 20	; 0x10000
 65c:	ldr	pc, [ip, #2488]!	; 0x9b8

00000660 <strlen@plt>:
 660:	add	ip, pc, #0, 12
 664:	add	ip, ip, #16, 20	; 0x10000
 668:	ldr	pc, [ip, #2480]!	; 0x9b0

0000066c <snprintf@plt>:
 66c:	add	ip, pc, #0, 12
 670:	add	ip, ip, #16, 20	; 0x10000
 674:	ldr	pc, [ip, #2472]!	; 0x9a8

00000678 <memset@plt>:
 678:	add	ip, pc, #0, 12
 67c:	add	ip, ip, #16, 20	; 0x10000
 680:	ldr	pc, [ip, #2464]!	; 0x9a0

00000684 <scache_send_missing@plt>:
 684:	add	ip, pc, #0, 12
 688:	add	ip, ip, #16, 20	; 0x10000
 68c:	ldr	pc, [ip, #2456]!	; 0x998

00000690 <rb_strlcpy@plt>:
 690:	add	ip, pc, #0, 12
 694:	add	ip, ip, #16, 20	; 0x10000
 698:	ldr	pc, [ip, #2448]!	; 0x990

0000069c <rb_strlcat@plt>:
 69c:	add	ip, pc, #0, 12
 6a0:	add	ip, ip, #16, 20	; 0x10000
 6a4:	ldr	pc, [ip, #2440]!	; 0x988

Disassembly of section .text:

000006a8 <call_weak_fn>:
 6a8:	ldr	r3, [pc, #20]	; 6c4 <call_weak_fn+0x1c>
 6ac:	ldr	r2, [pc, #20]	; 6c8 <call_weak_fn+0x20>
 6b0:	add	r3, pc, r3
 6b4:	ldr	r2, [r3, r2]
 6b8:	cmp	r2, #0
 6bc:	bxeq	lr
 6c0:	b	648 <__gmon_start__@plt>
 6c4:	.word	0x00010948
 6c8:	.word	0x00000044

000006cc <deregister_tm_clones>:
 6cc:	ldr	r0, [pc, #44]	; 700 <deregister_tm_clones+0x34>
 6d0:	ldr	r3, [pc, #44]	; 704 <deregister_tm_clones+0x38>
 6d4:	add	r0, pc, r0
 6d8:	add	r3, pc, r3
 6dc:	cmp	r3, r0
 6e0:	ldr	r3, [pc, #32]	; 708 <deregister_tm_clones+0x3c>
 6e4:	add	r3, pc, r3
 6e8:	bxeq	lr
 6ec:	ldr	r2, [pc, #24]	; 70c <deregister_tm_clones+0x40>
 6f0:	ldr	r3, [r3, r2]
 6f4:	cmp	r3, #0
 6f8:	bxeq	lr
 6fc:	bx	r3
 700:	.word	0x000109f0
 704:	.word	0x000109ec
 708:	.word	0x00010914
 70c:	.word	0x00000038

00000710 <register_tm_clones>:
 710:	ldr	r0, [pc, #56]	; 750 <register_tm_clones+0x40>
 714:	ldr	r3, [pc, #56]	; 754 <register_tm_clones+0x44>
 718:	add	r0, pc, r0
 71c:	add	r3, pc, r3
 720:	sub	r1, r3, r0
 724:	ldr	r3, [pc, #44]	; 758 <register_tm_clones+0x48>
 728:	asr	r1, r1, #2
 72c:	add	r3, pc, r3
 730:	add	r1, r1, r1, lsr #31
 734:	asrs	r1, r1, #1
 738:	bxeq	lr
 73c:	ldr	r2, [pc, #24]	; 75c <register_tm_clones+0x4c>
 740:	ldr	r3, [r3, r2]
 744:	cmp	r3, #0
 748:	bxeq	lr
 74c:	bx	r3
 750:	.word	0x000109ac
 754:	.word	0x000109a8
 758:	.word	0x000108cc
 75c:	.word	0x00000048

00000760 <__do_global_dtors_aux>:
 760:	ldr	r3, [pc, #76]	; 7b4 <__do_global_dtors_aux+0x54>
 764:	ldr	r2, [pc, #76]	; 7b8 <__do_global_dtors_aux+0x58>
 768:	add	r3, pc, r3
 76c:	add	r2, pc, r2
 770:	ldrb	r3, [r3]
 774:	cmp	r3, #0
 778:	bxne	lr
 77c:	ldr	r3, [pc, #56]	; 7bc <__do_global_dtors_aux+0x5c>
 780:	push	{r4, lr}
 784:	ldr	r3, [r2, r3]
 788:	cmp	r3, #0
 78c:	beq	79c <__do_global_dtors_aux+0x3c>
 790:	ldr	r3, [pc, #40]	; 7c0 <__do_global_dtors_aux+0x60>
 794:	ldr	r0, [pc, r3]
 798:	bl	63c <__cxa_finalize@plt>
 79c:	bl	6cc <deregister_tm_clones>
 7a0:	ldr	r3, [pc, #28]	; 7c4 <__do_global_dtors_aux+0x64>
 7a4:	mov	r2, #1
 7a8:	add	r3, pc, r3
 7ac:	strb	r2, [r3]
 7b0:	pop	{r4, pc}
 7b4:	.word	0x0001095c
 7b8:	.word	0x0001088c
 7bc:	.word	0x00000034
 7c0:	.word	0x000108b8
 7c4:	.word	0x0001091c

000007c8 <frame_dummy>:
 7c8:	b	710 <register_tm_clones>

000007cc <m_map>:
 7cc:	push	{r4, sl, fp, lr}
 7d0:	add	fp, sp, #8
 7d4:	mov	r4, r1
 7d8:	ldrb	r0, [r2, #67]	; 0x43
 7dc:	and	r0, r0, #4
 7e0:	mov	r1, #1
 7e4:	eor	r0, r1, r0, lsr #2
 7e8:	ldr	r1, [pc, #96]	; 850 <m_map+0x84>
 7ec:	ldr	r1, [pc, r1]
 7f0:	ldr	r1, [r1]
 7f4:	cmp	r1, #0
 7f8:	movwne	r1, #1
 7fc:	tst	r0, r1
 800:	ldreq	r0, [pc, #76]	; 854 <m_map+0x88>
 804:	ldreq	r0, [pc, r0]
 808:	ldreq	r0, [r0, #176]	; 0xb0
 80c:	cmpeq	r0, #0
 810:	beq	820 <m_map+0x54>
 814:	mov	r0, r4
 818:	bl	8b4 <flattened_map>
 81c:	b	838 <m_map+0x6c>
 820:	ldr	r1, [pc, #52]	; 85c <m_map+0x90>
 824:	ldr	r1, [pc, r1]
 828:	ldr	r2, [pc, #48]	; 860 <m_map+0x94>
 82c:	add	r2, pc, r2
 830:	mov	r0, r4
 834:	bl	af4 <dump_map>
 838:	ldr	r2, [pc, #24]	; 858 <m_map+0x8c>
 83c:	add	r2, pc, r2
 840:	mov	r0, r4
 844:	mov	r1, #17
 848:	pop	{r4, sl, fp, lr}
 84c:	b	654 <sendto_one_numeric@plt>
 850:	.word	0x0001084c
 854:	.word	0x00010844
 858:	.word	0x000004a4
 85c:	.word	0x00010820
 860:	.word	0x00010899

00000864 <mo_map>:
 864:	push	{r4, sl, fp, lr}
 868:	add	fp, sp, #8
 86c:	mov	r4, r1
 870:	ldr	r1, [pc, #48]	; 8a8 <mo_map+0x44>
 874:	ldr	r1, [pc, r1]
 878:	ldr	r2, [pc, #44]	; 8ac <mo_map+0x48>
 87c:	add	r2, pc, r2
 880:	mov	r0, r4
 884:	bl	af4 <dump_map>
 888:	mov	r0, r4
 88c:	bl	684 <scache_send_missing@plt>
 890:	ldr	r2, [pc, #24]	; 8b0 <mo_map+0x4c>
 894:	add	r2, pc, r2
 898:	mov	r0, r4
 89c:	mov	r1, #17
 8a0:	pop	{r4, sl, fp, lr}
 8a4:	b	654 <sendto_one_numeric@plt>
 8a8:	.word	0x000107d0
 8ac:	.word	0x00010849
 8b0:	.word	0x0000044c

000008b4 <flattened_map>:
 8b4:	push	{r4, r5, r6, r7, r8, r9, sl, fp, lr}
 8b8:	add	fp, sp, #28
 8bc:	sub	sp, sp, #4
 8c0:	vpush	{d8}
 8c4:	sub	sp, sp, #528	; 0x210
 8c8:	mov	r4, r0
 8cc:	ldr	r6, [pc, #496]	; ac4 <flattened_map+0x210>
 8d0:	ldr	r6, [pc, r6]
 8d4:	add	r1, r6, #88	; 0x58
 8d8:	add	r5, sp, #12
 8dc:	mov	r0, r5
 8e0:	mov	r2, #512	; 0x200
 8e4:	bl	690 <rb_strlcpy@plt>
 8e8:	mov	r0, r5
 8ec:	bl	660 <strlen@plt>
 8f0:	mov	r1, #32
 8f4:	strb	r1, [r5, r0]
 8f8:	cmp	r0, #48	; 0x30
 8fc:	bgt	918 <flattened_map+0x64>
 900:	add	r1, r5, r0
 904:	add	r1, r1, #1
 908:	rsb	r2, r0, #49	; 0x31
 90c:	mov	r0, r1
 910:	mov	r1, #45	; 0x2d
 914:	bl	678 <memset@plt>
 918:	ldr	r0, [r6, #28]
 91c:	ldr	r3, [r0, #56]	; 0x38
 920:	ldr	r0, [pc, #416]	; ac8 <flattened_map+0x214>
 924:	ldr	r0, [pc, r0]
 928:	vldr	s0, [r0, #4]
 92c:	vldr	s16, [pc, #396]	; ac0 <flattened_map+0x20c>
 930:	vmov	s2, r3
 934:	vcvt.f32.u32	s2, s2
 938:	vcvt.f32.s32	s0, s0
 93c:	vmul.f32	s2, s2, s16
 940:	vdiv.f32	s0, s2, s0
 944:	vcvt.f64.f32	d16, s0
 948:	vstr	d16, [sp]
 94c:	add	r6, r5, #50	; 0x32
 950:	ldr	r2, [pc, #372]	; acc <flattened_map+0x218>
 954:	add	r2, pc, r2
 958:	mov	r0, r6
 95c:	movw	r1, #462	; 0x1ce
 960:	bl	66c <snprintf@plt>
 964:	ldr	r2, [pc, #356]	; ad0 <flattened_map+0x21c>
 968:	add	r2, pc, r2
 96c:	mov	r0, r4
 970:	mov	r1, #15
 974:	mov	r3, r5
 978:	bl	654 <sendto_one_numeric@plt>
 97c:	ldr	r0, [pc, #336]	; ad4 <flattened_map+0x220>
 980:	ldr	r0, [pc, r0]
 984:	ldr	r8, [r0]
 988:	cmp	r8, #0
 98c:	beq	ab0 <flattened_map+0x1fc>
 990:	add	r0, r5, #1
 994:	str	r0, [sp, #8]
 998:	mov	r9, #1
 99c:	ldr	r7, [pc, #308]	; ad8 <flattened_map+0x224>
 9a0:	ldr	r7, [pc, r7]
 9a4:	ldr	sl, [r8]
 9a8:	ldrh	r0, [sl, #80]	; 0x50
 9ac:	cmp	r0, #4
 9b0:	beq	aa0 <flattened_map+0x1ec>
 9b4:	ldr	r0, [r7, #12]
 9b8:	cmp	r0, #0
 9bc:	bne	9cc <flattened_map+0x118>
 9c0:	ldrb	r0, [sl, #65]	; 0x41
 9c4:	tst	r0, #8
 9c8:	bne	aa0 <flattened_map+0x1ec>
 9cc:	ldr	r0, [pc, #264]	; adc <flattened_map+0x228>
 9d0:	ldr	r0, [pc, r0]
 9d4:	ldr	r0, [r0, #8]
 9d8:	cmp	r9, r0
 9dc:	bne	9f0 <flattened_map+0x13c>
 9e0:	mov	r0, r5
 9e4:	ldr	r1, [pc, #244]	; ae0 <flattened_map+0x22c>
 9e8:	add	r1, pc, r1
 9ec:	b	9fc <flattened_map+0x148>
 9f0:	mov	r0, r5
 9f4:	ldr	r1, [pc, #232]	; ae4 <flattened_map+0x230>
 9f8:	add	r1, pc, r1
 9fc:	mov	r2, #512	; 0x200
 a00:	bl	690 <rb_strlcpy@plt>
 a04:	add	r1, sl, #88	; 0x58
 a08:	mov	r0, r5
 a0c:	mov	r2, #512	; 0x200
 a10:	bl	69c <rb_strlcat@plt>
 a14:	mov	r0, r5
 a18:	bl	660 <strlen@plt>
 a1c:	mov	r1, #32
 a20:	strb	r1, [r5, r0]
 a24:	cmp	r0, #48	; 0x30
 a28:	bgt	a44 <flattened_map+0x190>
 a2c:	ldr	r1, [sp, #8]
 a30:	add	r1, r1, r0
 a34:	rsb	r2, r0, #49	; 0x31
 a38:	mov	r0, r1
 a3c:	mov	r1, #45	; 0x2d
 a40:	bl	678 <memset@plt>
 a44:	ldr	r0, [sl, #28]
 a48:	ldr	r3, [r0, #56]	; 0x38
 a4c:	ldr	r0, [pc, #148]	; ae8 <flattened_map+0x234>
 a50:	ldr	r0, [pc, r0]
 a54:	vldr	s0, [r0, #4]
 a58:	vmov	s2, r3
 a5c:	vcvt.f32.u32	s2, s2
 a60:	vcvt.f32.s32	s0, s0
 a64:	vmul.f32	s2, s2, s16
 a68:	vdiv.f32	s0, s2, s0
 a6c:	vcvt.f64.f32	d16, s0
 a70:	vstr	d16, [sp]
 a74:	mov	r0, r6
 a78:	movw	r1, #462	; 0x1ce
 a7c:	ldr	r2, [pc, #104]	; aec <flattened_map+0x238>
 a80:	add	r2, pc, r2
 a84:	bl	66c <snprintf@plt>
 a88:	mov	r0, r4
 a8c:	mov	r1, #15
 a90:	ldr	r2, [pc, #88]	; af0 <flattened_map+0x23c>
 a94:	add	r2, pc, r2
 a98:	mov	r3, r5
 a9c:	bl	654 <sendto_one_numeric@plt>
 aa0:	add	r9, r9, #1
 aa4:	ldr	r8, [r8, #8]
 aa8:	cmp	r8, #0
 aac:	bne	9a4 <flattened_map+0xf0>
 ab0:	sub	sp, fp, #40	; 0x28
 ab4:	vpop	{d8}
 ab8:	add	sp, sp, #4
 abc:	pop	{r4, r5, r6, r7, r8, r9, sl, fp, pc}
 ac0:	.word	0x42c80000
 ac4:	.word	0x00010774
 ac8:	.word	0x00010710
 acc:	.word	0x00000399
 ad0:	.word	0x0000039e
 ad4:	.word	0x000106a8
 ad8:	.word	0x00010698
 adc:	.word	0x00010658
 ae0:	.word	0x00000322
 ae4:	.word	0x00000317
 ae8:	.word	0x000105e4
 aec:	.word	0x0000026d
 af0:	.word	0x00000272

00000af4 <dump_map>:
 af4:	push	{r4, r5, r6, r7, r8, r9, sl, fp, lr}
 af8:	add	fp, sp, #28
 afc:	sub	sp, sp, #12
 b00:	mov	r4, r2
 b04:	mov	r6, r1
 b08:	mov	r5, r0
 b0c:	mov	r0, #0
 b10:	strb	r0, [r2]
 b14:	add	r1, r1, #88	; 0x58
 b18:	mov	r0, r2
 b1c:	mov	r2, #512	; 0x200
 b20:	bl	69c <rb_strlcat@plt>
 b24:	mov	r7, r6
 b28:	ldrb	r0, [r7, #396]!	; 0x18c
 b2c:	cmp	r0, #0
 b30:	beq	b6c <dump_map+0x78>
 b34:	ldr	r1, [pc, #396]	; cc8 <dump_map+0x1d4>
 b38:	add	r1, pc, r1
 b3c:	mov	r0, r4
 b40:	mov	r2, #512	; 0x200
 b44:	bl	69c <rb_strlcat@plt>
 b48:	mov	r0, r4
 b4c:	mov	r1, r7
 b50:	mov	r2, #512	; 0x200
 b54:	bl	69c <rb_strlcat@plt>
 b58:	ldr	r1, [pc, #364]	; ccc <dump_map+0x1d8>
 b5c:	add	r1, pc, r1
 b60:	mov	r0, r4
 b64:	mov	r2, #512	; 0x200
 b68:	bl	69c <rb_strlcat@plt>
 b6c:	ldr	r8, [pc, #348]	; cd0 <dump_map+0x1dc>
 b70:	add	r8, pc, r8
 b74:	mov	r0, r8
 b78:	bl	660 <strlen@plt>
 b7c:	mov	r1, #32
 b80:	strb	r1, [r8, r0]
 b84:	cmp	r0, #48	; 0x30
 b88:	bgt	ba4 <dump_map+0xb0>
 b8c:	add	r1, r8, r0
 b90:	add	r1, r1, #1
 b94:	rsb	r2, r0, #49	; 0x31
 b98:	mov	r0, r1
 b9c:	mov	r1, #45	; 0x2d
 ba0:	bl	678 <memset@plt>
 ba4:	ldr	r0, [r6, #28]
 ba8:	ldr	r3, [r0, #56]	; 0x38
 bac:	mov	r0, #1000	; 0x3e8
 bb0:	mul	r0, r3, r0
 bb4:	ldr	r1, [pc, #280]	; cd4 <dump_map+0x1e0>
 bb8:	ldr	r1, [pc, r1]
 bbc:	ldr	r1, [r1, #4]
 bc0:	add	r2, r1, r1, lsr #31
 bc4:	add	r0, r0, r2, asr #1
 bc8:	udiv	r0, r0, r1
 bcc:	movw	r1, #26215	; 0x6667
 bd0:	movt	r1, #26214	; 0x6666
 bd4:	smmul	r1, r0, r1
 bd8:	asr	r2, r1, #2
 bdc:	add	r1, r2, r1, lsr #31
 be0:	add	r2, r1, r1, lsl #2
 be4:	sub	r0, r0, r2, lsl #1
 be8:	str	r1, [sp]
 bec:	str	r0, [sp, #4]
 bf0:	add	r0, r8, #50	; 0x32
 bf4:	ldr	r2, [pc, #220]	; cd8 <dump_map+0x1e4>
 bf8:	add	r2, pc, r2
 bfc:	movw	r1, #462	; 0x1ce
 c00:	bl	66c <snprintf@plt>
 c04:	ldr	r2, [pc, #208]	; cdc <dump_map+0x1e8>
 c08:	add	r2, pc, r2
 c0c:	mov	r0, r5
 c10:	mov	r1, #15
 c14:	mov	r3, r8
 c18:	bl	654 <sendto_one_numeric@plt>
 c1c:	ldr	r0, [r6, #28]
 c20:	ldr	r1, [r0, #36]	; 0x24
 c24:	cmp	r1, #0
 c28:	beq	c60 <dump_map+0x16c>
 c2c:	ldr	sl, [r0, #44]	; 0x2c
 c30:	add	r0, r8, #3
 c34:	mov	r8, r5
 c38:	cmp	r4, r0
 c3c:	bls	c68 <dump_map+0x174>
 c40:	cmp	sl, #0
 c44:	beq	c68 <dump_map+0x174>
 c48:	mov	r0, #32
 c4c:	strb	r0, [r4, #-2]
 c50:	ldrb	r1, [r4, #-3]
 c54:	cmp	r1, #96	; 0x60
 c58:	strbeq	r0, [r4, #-3]
 c5c:	b	c68 <dump_map+0x174>
 c60:	mov	r8, r5
 c64:	mov	sl, #0
 c68:	ldr	r0, [r6, #28]
 c6c:	ldr	r5, [r0, #36]	; 0x24
 c70:	cmp	r5, #0
 c74:	beq	cc0 <dump_map+0x1cc>
 c78:	add	r6, r4, #4
 c7c:	mov	r7, #1
 c80:	movw	r9, #8237	; 0x202d
 c84:	cmp	r7, sl
 c88:	mov	r0, #96	; 0x60
 c8c:	movwlt	r0, #124	; 0x7c
 c90:	ldr	r1, [r5]
 c94:	strb	r0, [r4, #1]
 c98:	mov	r0, #32
 c9c:	strb	r0, [r4]
 ca0:	strh	r9, [r4, #2]
 ca4:	mov	r0, r8
 ca8:	mov	r2, r6
 cac:	bl	af4 <dump_map>
 cb0:	add	r7, r7, #1
 cb4:	ldr	r5, [r5, #8]
 cb8:	cmp	r5, #0
 cbc:	bne	c84 <dump_map+0x190>
 cc0:	sub	sp, fp, #28
 cc4:	pop	{r4, r5, r6, r7, r8, r9, sl, fp, pc}
 cc8:	.word	0x000001dc
 ccc:	.word	0x000001ba
 cd0:	.word	0x00010555
 cd4:	.word	0x0001047c
 cd8:	.word	0x00000120
 cdc:	.word	0x000000fe

Disassembly of section .fini:

00000ce0 <_fini>:
 ce0:	push	{r3, lr}
 ce4:	pop	{r3, pc}
