
../repos/daq-2.0.7/os-daq-modules/.libs/daq_dump.so:     file format elf32-littlearm


Disassembly of section .init:

0000057c <_init>:
 57c:	push	{r3, lr}
 580:	bl	65c <call_weak_fn>
 584:	pop	{r3, pc}

Disassembly of section .plt:

00000588 <.plt>:
 588:	push	{lr}		; (str lr, [sp, #-4]!)
 58c:	ldr	lr, [pc, #4]	; 598 <.plt+0x10>
 590:	add	lr, pc, lr
 594:	ldr	pc, [lr, #8]!
 598:	.word	0x00010a68

0000059c <calloc@plt>:
 59c:	add	ip, pc, #0, 12
 5a0:	add	ip, ip, #16, 20	; 0x10000
 5a4:	ldr	pc, [ip, #2664]!	; 0xa68

000005a8 <strcmp@plt>:
 5a8:	add	ip, pc, #0, 12
 5ac:	add	ip, ip, #16, 20	; 0x10000
 5b0:	ldr	pc, [ip, #2656]!	; 0xa60

000005b4 <__cxa_finalize@plt>:
 5b4:	add	ip, pc, #0, 12
 5b8:	add	ip, ip, #16, 20	; 0x10000
 5bc:	ldr	pc, [ip, #2648]!	; 0xa58

000005c0 <free@plt>:
 5c0:	add	ip, pc, #0, 12
 5c4:	add	ip, ip, #16, 20	; 0x10000
 5c8:	ldr	pc, [ip, #2640]!	; 0xa50

000005cc <ferror@plt>:
 5cc:	add	ip, pc, #0, 12
 5d0:	add	ip, ip, #16, 20	; 0x10000
 5d4:	ldr	pc, [ip, #2632]!	; 0xa48

000005d8 <strdup@plt>:
 5d8:	add	ip, pc, #0, 12
 5dc:	add	ip, ip, #16, 20	; 0x10000
 5e0:	ldr	pc, [ip, #2624]!	; 0xa40

000005e4 <pcap_close@plt>:
 5e4:	add	ip, pc, #0, 12
 5e8:	add	ip, ip, #16, 20	; 0x10000
 5ec:	ldr	pc, [ip, #2616]!	; 0xa38

000005f0 <strcasecmp@plt>:
 5f0:	add	ip, pc, #0, 12
 5f4:	add	ip, ip, #16, 20	; 0x10000
 5f8:	ldr	pc, [ip, #2608]!	; 0xa30

000005fc <pcap_open_dead@plt>:
 5fc:	add	ip, pc, #0, 12
 600:	add	ip, ip, #16, 20	; 0x10000
 604:	ldr	pc, [ip, #2600]!	; 0xa28

00000608 <pcap_dump@plt>:
 608:	add	ip, pc, #0, 12
 60c:	add	ip, ip, #16, 20	; 0x10000
 610:	ldr	pc, [ip, #2592]!	; 0xa20

00000614 <__gmon_start__@plt>:
 614:	add	ip, pc, #0, 12
 618:	add	ip, ip, #16, 20	; 0x10000
 61c:	ldr	pc, [ip, #2584]!	; 0xa18

00000620 <snprintf@plt>:
 620:	add	ip, pc, #0, 12
 624:	add	ip, ip, #16, 20	; 0x10000
 628:	ldr	pc, [ip, #2576]!	; 0xa10

0000062c <pcap_dump_file@plt>:
 62c:	add	ip, pc, #0, 12
 630:	add	ip, ip, #16, 20	; 0x10000
 634:	ldr	pc, [ip, #2568]!	; 0xa08

00000638 <memset@plt>:
 638:	add	ip, pc, #0, 12
 63c:	add	ip, ip, #16, 20	; 0x10000
 640:	ldr	pc, [ip, #2560]!	; 0xa00

00000644 <pcap_dump_close@plt>:
 644:	add	ip, pc, #0, 12
 648:	add	ip, ip, #16, 20	; 0x10000
 64c:	ldr	pc, [ip, #2552]!	; 0x9f8

00000650 <pcap_dump_open@plt>:
 650:	add	ip, pc, #0, 12
 654:	add	ip, ip, #16, 20	; 0x10000
 658:	ldr	pc, [ip, #2544]!	; 0x9f0

Disassembly of section .text:

0000065c <call_weak_fn>:
 65c:	ldr	r3, [pc, #20]	; 678 <call_weak_fn+0x1c>
 660:	ldr	r2, [pc, #20]	; 67c <call_weak_fn+0x20>
 664:	add	r3, pc, r3
 668:	ldr	r2, [r3, r2]
 66c:	cmp	r2, #0
 670:	bxeq	lr
 674:	b	614 <__gmon_start__@plt>
 678:	.word	0x00010994
 67c:	.word	0x00000054

00000680 <deregister_tm_clones>:
 680:	ldr	r3, [pc, #52]	; 6bc <deregister_tm_clones+0x3c>
 684:	ldr	r0, [pc, #52]	; 6c0 <deregister_tm_clones+0x40>
 688:	add	r3, pc, r3
 68c:	add	r0, pc, r0
 690:	add	r3, r3, #3
 694:	sub	r3, r3, r0
 698:	cmp	r3, #6
 69c:	ldr	r3, [pc, #32]	; 6c4 <deregister_tm_clones+0x44>
 6a0:	add	r3, pc, r3
 6a4:	bxls	lr
 6a8:	ldr	r2, [pc, #24]	; 6c8 <deregister_tm_clones+0x48>
 6ac:	ldr	r3, [r3, r2]
 6b0:	cmp	r3, #0
 6b4:	bxeq	lr
 6b8:	bx	r3
 6bc:	.word	0x00010a3c
 6c0:	.word	0x00010a38
 6c4:	.word	0x00010958
 6c8:	.word	0x00000050

000006cc <register_tm_clones>:
 6cc:	ldr	r1, [pc, #56]	; 70c <register_tm_clones+0x40>
 6d0:	ldr	r0, [pc, #56]	; 710 <register_tm_clones+0x44>
 6d4:	add	r1, pc, r1
 6d8:	add	r0, pc, r0
 6dc:	sub	r1, r1, r0
 6e0:	ldr	r3, [pc, #44]	; 714 <register_tm_clones+0x48>
 6e4:	asr	r1, r1, #2
 6e8:	add	r3, pc, r3
 6ec:	add	r1, r1, r1, lsr #31
 6f0:	asrs	r1, r1, #1
 6f4:	bxeq	lr
 6f8:	ldr	r2, [pc, #24]	; 718 <register_tm_clones+0x4c>
 6fc:	ldr	r3, [r3, r2]
 700:	cmp	r3, #0
 704:	bxeq	lr
 708:	bx	r3
 70c:	.word	0x000109f0
 710:	.word	0x000109ec
 714:	.word	0x00010910
 718:	.word	0x0000005c

0000071c <__do_global_dtors_aux>:
 71c:	ldr	r3, [pc, #76]	; 770 <__do_global_dtors_aux+0x54>
 720:	ldr	r2, [pc, #76]	; 774 <__do_global_dtors_aux+0x58>
 724:	add	r3, pc, r3
 728:	add	r2, pc, r2
 72c:	ldrb	r3, [r3]
 730:	cmp	r3, #0
 734:	bxne	lr
 738:	ldr	r3, [pc, #56]	; 778 <__do_global_dtors_aux+0x5c>
 73c:	push	{r4, lr}
 740:	ldr	r3, [r2, r3]
 744:	cmp	r3, #0
 748:	beq	758 <__do_global_dtors_aux+0x3c>
 74c:	ldr	r3, [pc, #40]	; 77c <__do_global_dtors_aux+0x60>
 750:	ldr	r0, [pc, r3]
 754:	bl	5b4 <__cxa_finalize@plt>
 758:	bl	680 <deregister_tm_clones>
 75c:	ldr	r3, [pc, #28]	; 780 <__do_global_dtors_aux+0x64>
 760:	mov	r2, #1
 764:	add	r3, pc, r3
 768:	strb	r2, [r3]
 76c:	pop	{r4, pc}
 770:	.word	0x000109a0
 774:	.word	0x000108d0
 778:	.word	0x0000004c
 77c:	.word	0x00010908
 780:	.word	0x00010960

00000784 <frame_dummy>:
 784:	ldr	r0, [pc, #56]	; 7c4 <frame_dummy+0x40>
 788:	ldr	r3, [pc, #56]	; 7c8 <frame_dummy+0x44>
 78c:	add	r0, pc, r0
 790:	ldr	r2, [r0]
 794:	add	r3, pc, r3
 798:	cmp	r2, #0
 79c:	bne	7a4 <frame_dummy+0x20>
 7a0:	b	6cc <register_tm_clones>
 7a4:	ldr	r2, [pc, #32]	; 7cc <frame_dummy+0x48>
 7a8:	ldr	r3, [r3, r2]
 7ac:	cmp	r3, #0
 7b0:	beq	7a0 <frame_dummy+0x1c>
 7b4:	push	{r4, lr}
 7b8:	blx	r3
 7bc:	pop	{r4, lr}
 7c0:	b	6cc <register_tm_clones>
 7c4:	.word	0x00010778
 7c8:	.word	0x00010864
 7cc:	.word	0x00000058

000007d0 <dump_daq_acquire>:
 7d0:	push	{r4, lr}
 7d4:	ldm	r0, {ip, lr}
 7d8:	ldr	r4, [sp, #8]
 7dc:	str	r2, [r0, #16]
 7e0:	str	r4, [r0, #20]
 7e4:	ldr	r2, [pc, #24]	; 804 <dump_daq_acquire+0x34>
 7e8:	str	r0, [sp, #8]
 7ec:	mov	r0, lr
 7f0:	ldr	lr, [ip, #28]
 7f4:	add	r2, pc, r2
 7f8:	mov	ip, lr
 7fc:	pop	{r4, lr}
 800:	bx	ip
 804:	.word	0x00000164

00000808 <dump_daq_set_filter>:
 808:	ldr	r3, [r0]
 80c:	ldr	r0, [r0, #4]
 810:	ldr	r3, [r3, #20]
 814:	bx	r3

00000818 <dump_daq_breakloop>:
 818:	ldr	r3, [r0]
 81c:	ldr	r0, [r0, #4]
 820:	ldr	r3, [r3, #36]	; 0x24
 824:	bx	r3

00000828 <dump_daq_check_status>:
 828:	ldr	r3, [r0]
 82c:	ldr	r0, [r0, #4]
 830:	ldr	r3, [r3, #48]	; 0x30
 834:	bx	r3

00000838 <dump_daq_get_stats>:
 838:	push	{r4, r5, r6, r7, r8, lr}
 83c:	mov	r4, r0
 840:	mov	r5, r0
 844:	ldr	r3, [r4], #64	; 0x40
 848:	mov	r8, r1
 84c:	ldr	r0, [r0, #4]
 850:	ldr	r3, [r3, #52]	; 0x34
 854:	blx	r3
 858:	add	r3, r8, #40	; 0x28
 85c:	add	r2, r5, #120	; 0x78
 860:	ldrd	r6, [r4], #8
 864:	cmp	r4, r2
 868:	strd	r6, [r3], #8
 86c:	bne	860 <dump_daq_get_stats+0x28>
 870:	ldrd	r2, [r5, #56]	; 0x38
 874:	strd	r2, [r8, #32]
 878:	pop	{r4, r5, r6, r7, r8, pc}

0000087c <dump_daq_get_snaplen>:
 87c:	ldr	r3, [r0]
 880:	ldr	r0, [r0, #4]
 884:	ldr	r3, [r3, #60]	; 0x3c
 888:	bx	r3

0000088c <dump_daq_get_capabilities>:
 88c:	push	{r4, lr}
 890:	ldr	r3, [r0]
 894:	ldr	r0, [r0, #4]
 898:	ldr	r3, [r3, #64]	; 0x40
 89c:	blx	r3
 8a0:	orr	r0, r0, #7
 8a4:	pop	{r4, pc}

000008a8 <dump_daq_get_datalink_type>:
 8a8:	ldr	r3, [r0]
 8ac:	ldr	r0, [r0, #4]
 8b0:	ldr	r3, [r3, #68]	; 0x44
 8b4:	bx	r3

000008b8 <dump_daq_get_errbuf>:
 8b8:	ldr	r3, [r0]
 8bc:	ldr	r0, [r0, #4]
 8c0:	ldr	r3, [r3, #72]	; 0x48
 8c4:	bx	r3

000008c8 <dump_daq_set_errbuf>:
 8c8:	ldr	r3, [r0]
 8cc:	cmp	r1, #0
 8d0:	ldr	r0, [r0, #4]
 8d4:	ldr	r3, [r3, #76]	; 0x4c
 8d8:	beq	8e0 <dump_daq_set_errbuf+0x18>
 8dc:	bx	r3
 8e0:	ldr	r1, [pc, #4]	; 8ec <dump_daq_set_errbuf+0x24>
 8e4:	add	r1, pc, r1
 8e8:	bx	r3
 8ec:	.word	0x000005b4

000008f0 <dump_daq_get_device_index>:
 8f0:	ldr	r3, [r0]
 8f4:	ldr	r0, [r0, #4]
 8f8:	ldr	r3, [r3, #80]	; 0x50
 8fc:	bx	r3

00000900 <dump_daq_reset_stats>:
 900:	push	{r4, lr}
 904:	mov	r4, r0
 908:	ldr	r0, [r0, #4]
 90c:	ldr	r3, [r4], #24
 910:	ldr	r3, [r3, #56]	; 0x38
 914:	blx	r3
 918:	mov	r0, r4
 91c:	mov	r2, #96	; 0x60
 920:	mov	r1, #0
 924:	pop	{r4, lr}
 928:	b	638 <memset@plt>

0000092c <dump_daq_shutdown>:
 92c:	push	{r4, lr}
 930:	mov	r4, r0
 934:	ldr	r3, [r0]
 938:	ldr	r0, [r0, #4]
 93c:	ldr	r3, [r3, #44]	; 0x2c
 940:	blx	r3
 944:	ldr	r0, [r4, #12]
 948:	cmp	r0, #0
 94c:	beq	954 <dump_daq_shutdown+0x28>
 950:	bl	5c0 <free@plt>
 954:	mov	r0, r4
 958:	pop	{r4, lr}
 95c:	b	5c0 <free@plt>

00000960 <daq_dump_capture>:
 960:	push	{r4, r5, r6, r7, r8, lr}
 964:	mov	r4, r0
 968:	ldr	r3, [r0, #16]
 96c:	ldr	r0, [r0, #20]
 970:	mov	r6, r1
 974:	mov	r7, r2
 978:	blx	r3
 97c:	cmp	r0, #6
 980:	bhi	9c8 <daq_dump_capture+0x68>
 984:	mov	r5, r0
 988:	add	r0, r4, r0, lsl #3
 98c:	ldr	r1, [pc, #80]	; 9e4 <daq_dump_capture+0x84>
 990:	ldrd	r2, [r0, #64]	; 0x40
 994:	add	r1, pc, r1
 998:	adds	r2, r2, #1
 99c:	ldr	r1, [r1, r5, lsl #2]
 9a0:	adc	r3, r3, #0
 9a4:	cmp	r1, #0
 9a8:	strd	r2, [r0, #64]	; 0x40
 9ac:	beq	9c0 <daq_dump_capture+0x60>
 9b0:	mov	r2, r7
 9b4:	mov	r1, r6
 9b8:	ldr	r0, [r4, #8]
 9bc:	bl	608 <pcap_dump@plt>
 9c0:	mov	r0, r5
 9c4:	pop	{r4, r5, r6, r7, r8, pc}
 9c8:	ldrd	r2, [r4, #72]	; 0x48
 9cc:	mov	r5, #1
 9d0:	mov	r0, r5
 9d4:	adds	r2, r2, #1
 9d8:	adc	r3, r3, #0
 9dc:	strd	r2, [r4, #72]	; 0x48
 9e0:	pop	{r4, r5, r6, r7, r8, pc}
 9e4:	.word	0x00000438

000009e8 <dump_daq_start>:
 9e8:	push	{r4, r5, r6, r7, r8, lr}
 9ec:	mov	r4, r0
 9f0:	ldr	r1, [r0, #12]
 9f4:	cmp	r1, #0
 9f8:	movne	r5, r1
 9fc:	beq	a7c <dump_daq_start+0x94>
 a00:	ldr	r3, [r4]
 a04:	ldr	r0, [r4, #4]
 a08:	ldr	r3, [r3, #24]
 a0c:	blx	r3
 a10:	subs	r6, r0, #0
 a14:	beq	a20 <dump_daq_start+0x38>
 a18:	mov	r0, r6
 a1c:	pop	{r4, r5, r6, r7, r8, pc}
 a20:	ldr	r3, [r4]
 a24:	ldr	r0, [r4, #4]
 a28:	ldr	r3, [r3, #68]	; 0x44
 a2c:	blx	r3
 a30:	ldr	r3, [r4]
 a34:	ldr	r3, [r3, #60]	; 0x3c
 a38:	mov	r7, r0
 a3c:	ldr	r0, [r4, #4]
 a40:	blx	r3
 a44:	mov	r1, r0
 a48:	mov	r0, r7
 a4c:	bl	5fc <pcap_open_dead@plt>
 a50:	subs	r7, r0, #0
 a54:	beq	a88 <dump_daq_start+0xa0>
 a58:	mov	r1, r5
 a5c:	bl	650 <pcap_dump_open@plt>
 a60:	cmp	r0, #0
 a64:	str	r0, [r4, #8]
 a68:	beq	a8c <dump_daq_start+0xa4>
 a6c:	mov	r0, r7
 a70:	bl	5e4 <pcap_close@plt>
 a74:	mov	r0, r6
 a78:	pop	{r4, r5, r6, r7, r8, pc}
 a7c:	ldr	r5, [pc, #56]	; abc <dump_daq_start+0xd4>
 a80:	add	r5, pc, r5
 a84:	b	a00 <dump_daq_start+0x18>
 a88:	str	r7, [r4, #8]
 a8c:	ldr	r3, [r4]
 a90:	ldr	r0, [r4, #4]
 a94:	mvn	r6, #0
 a98:	ldr	r3, [r3, #40]	; 0x28
 a9c:	blx	r3
 aa0:	ldr	r3, [r4]
 aa4:	ldr	r1, [pc, #20]	; ac0 <dump_daq_start+0xd8>
 aa8:	ldr	r0, [r4, #4]
 aac:	add	r1, pc, r1
 ab0:	ldr	r3, [r3, #76]	; 0x4c
 ab4:	blx	r3
 ab8:	b	a18 <dump_daq_start+0x30>
 abc:	.word	0x0000037c
 ac0:	.word	0x00000360

00000ac4 <dump_daq_stop>:
 ac4:	push	{r4, r5, r6, lr}
 ac8:	mov	r4, r0
 acc:	ldr	r3, [r0]
 ad0:	ldr	r0, [r0, #4]
 ad4:	ldr	r3, [r3, #40]	; 0x28
 ad8:	blx	r3
 adc:	subs	r5, r0, #0
 ae0:	bne	af8 <dump_daq_stop+0x34>
 ae4:	ldr	r0, [r4, #8]
 ae8:	cmp	r0, #0
 aec:	beq	af8 <dump_daq_stop+0x34>
 af0:	bl	644 <pcap_dump_close@plt>
 af4:	str	r5, [r4, #8]
 af8:	mov	r0, r5
 afc:	pop	{r4, r5, r6, pc}

00000b00 <dump_daq_inject>:
 b00:	push	{r4, r5, r6, lr}
 b04:	mov	lr, r1
 b08:	mov	r4, r0
 b0c:	mov	r5, r3
 b10:	mov	r6, r2
 b14:	ldm	lr!, {r0, r1, r2, r3}
 b18:	sub	sp, sp, #56	; 0x38
 b1c:	add	ip, sp, #4
 b20:	stmia	ip!, {r0, r1, r2, r3}
 b24:	ldm	lr!, {r0, r1, r2, r3}
 b28:	str	r5, [sp, #12]
 b2c:	str	r5, [sp, #16]
 b30:	stmia	ip!, {r0, r1, r2, r3}
 b34:	ldm	lr!, {r0, r1, r2, r3}
 b38:	ldr	lr, [lr]
 b3c:	stmia	ip!, {r0, r1, r2, r3}
 b40:	mov	r2, r6
 b44:	add	r1, sp, #4
 b48:	ldr	r0, [r4, #8]
 b4c:	str	lr, [ip]
 b50:	bl	608 <pcap_dump@plt>
 b54:	ldr	r0, [r4, #8]
 b58:	bl	62c <pcap_dump_file@plt>
 b5c:	bl	5cc <ferror@plt>
 b60:	cmp	r0, #0
 b64:	bne	b80 <dump_daq_inject+0x80>
 b68:	ldrd	r2, [r4, #56]	; 0x38
 b6c:	adds	r2, r2, #1
 b70:	adc	r3, r3, #0
 b74:	strd	r2, [r4, #56]	; 0x38
 b78:	add	sp, sp, #56	; 0x38
 b7c:	pop	{r4, r5, r6, pc}
 b80:	ldr	r3, [r4]
 b84:	ldr	r1, [pc, #20]	; ba0 <dump_daq_inject+0xa0>
 b88:	ldr	r0, [r4, #4]
 b8c:	add	r1, pc, r1
 b90:	ldr	r3, [r3, #76]	; 0x4c
 b94:	blx	r3
 b98:	mvn	r0, #0
 b9c:	b	b78 <dump_daq_inject+0x78>
 ba0:	.word	0x00000298

00000ba4 <dump_daq_initialize>:
 ba4:	push	{r4, r5, r6, r7, r8, r9, sl, fp, lr}
 ba8:	sub	sp, sp, #52	; 0x34
 bac:	mov	r4, r0
 bb0:	str	r1, [sp, #12]
 bb4:	mov	r0, #1
 bb8:	mov	r1, #120	; 0x78
 bbc:	stmib	sp, {r2, r3}
 bc0:	bl	59c <calloc@plt>
 bc4:	mov	lr, r4
 bc8:	add	r9, sp, #20
 bcc:	mov	ip, r9
 bd0:	ldr	r8, [r4, #24]
 bd4:	mov	r7, r0
 bd8:	ldm	lr!, {r0, r1, r2, r3}
 bdc:	cmp	r7, #0
 be0:	stmia	ip!, {r0, r1, r2, r3}
 be4:	ldm	lr, {r0, r1, r2}
 be8:	stm	ip, {r0, r1, r2}
 bec:	beq	d80 <dump_daq_initialize+0x1dc>
 bf0:	cmp	r8, #0
 bf4:	beq	d54 <dump_daq_initialize+0x1b0>
 bf8:	ldr	r3, [r8, #12]
 bfc:	tst	r3, #1
 c00:	beq	d54 <dump_daq_initialize+0x1b0>
 c04:	ldr	sl, [sp, #40]	; 0x28
 c08:	cmp	sl, #0
 c0c:	beq	ce0 <dump_daq_initialize+0x13c>
 c10:	ldr	r5, [pc, #396]	; da4 <dump_daq_initialize+0x200>
 c14:	ldr	r4, [pc, #396]	; da8 <dump_daq_initialize+0x204>
 c18:	add	r5, pc, r5
 c1c:	add	r4, pc, r4
 c20:	mov	r6, #0
 c24:	b	c38 <dump_daq_initialize+0x94>
 c28:	ldr	r6, [sl, #4]
 c2c:	ldr	sl, [sl, #8]
 c30:	cmp	sl, #0
 c34:	beq	c7c <dump_daq_initialize+0xd8>
 c38:	ldr	fp, [sl]
 c3c:	mov	r1, r5
 c40:	mov	r0, fp
 c44:	bl	5a8 <strcmp@plt>
 c48:	mov	r1, r4
 c4c:	cmp	r0, #0
 c50:	mov	r0, fp
 c54:	beq	c28 <dump_daq_initialize+0x84>
 c58:	bl	5a8 <strcmp@plt>
 c5c:	cmp	r0, #0
 c60:	bne	c2c <dump_daq_initialize+0x88>
 c64:	ldr	r0, [sl, #4]
 c68:	bl	5d8 <strdup@plt>
 c6c:	str	r0, [r7, #12]
 c70:	ldr	sl, [sl, #8]
 c74:	cmp	sl, #0
 c78:	bne	c38 <dump_daq_initialize+0x94>
 c7c:	cmp	r6, #0
 c80:	beq	ce0 <dump_daq_initialize+0x13c>
 c84:	ldr	r1, [pc, #288]	; dac <dump_daq_initialize+0x208>
 c88:	mov	r0, r6
 c8c:	add	r1, pc, r1
 c90:	bl	5f0 <strcasecmp@plt>
 c94:	cmp	r0, #0
 c98:	moveq	r3, #2
 c9c:	streq	r3, [sp, #32]
 ca0:	beq	ce0 <dump_daq_initialize+0x13c>
 ca4:	ldr	r1, [pc, #260]	; db0 <dump_daq_initialize+0x20c>
 ca8:	mov	r0, r6
 cac:	add	r1, pc, r1
 cb0:	bl	5f0 <strcasecmp@plt>
 cb4:	cmp	r0, #0
 cb8:	streq	sl, [sp, #32]
 cbc:	beq	ce0 <dump_daq_initialize+0x13c>
 cc0:	ldr	r1, [pc, #236]	; db4 <dump_daq_initialize+0x210>
 cc4:	mov	r0, r6
 cc8:	add	r1, pc, r1
 ccc:	bl	5f0 <strcasecmp@plt>
 cd0:	cmp	r0, #0
 cd4:	moveq	r3, #1
 cd8:	streq	r3, [sp, #32]
 cdc:	bne	d14 <dump_daq_initialize+0x170>
 ce0:	ldr	r4, [r8, #16]
 ce4:	ldmib	sp, {r2, r3}
 ce8:	mov	r0, r9
 cec:	add	r1, r7, #4
 cf0:	blx	r4
 cf4:	subs	r4, r0, #0
 cf8:	bne	d40 <dump_daq_initialize+0x19c>
 cfc:	ldr	r3, [sp, #12]
 d00:	str	r8, [r7]
 d04:	str	r7, [r3]
 d08:	mov	r0, r4
 d0c:	add	sp, sp, #52	; 0x34
 d10:	pop	{r4, r5, r6, r7, r8, r9, sl, fp, pc}
 d14:	ldr	r2, [pc, #156]	; db8 <dump_daq_initialize+0x214>
 d18:	mov	r3, r6
 d1c:	ldmib	sp, {r0, r1}
 d20:	add	r2, pc, r2
 d24:	bl	620 <snprintf@plt>
 d28:	mov	r0, r7
 d2c:	bl	5c0 <free@plt>
 d30:	mvn	r4, #0
 d34:	mov	r0, r4
 d38:	add	sp, sp, #52	; 0x34
 d3c:	pop	{r4, r5, r6, r7, r8, r9, sl, fp, pc}
 d40:	mov	r0, r7
 d44:	bl	5c0 <free@plt>
 d48:	mov	r0, r4
 d4c:	add	sp, sp, #52	; 0x34
 d50:	pop	{r4, r5, r6, r7, r8, r9, sl, fp, pc}
 d54:	ldr	r3, [pc, #96]	; dbc <dump_daq_initialize+0x218>
 d58:	ldr	r2, [pc, #96]	; dc0 <dump_daq_initialize+0x21c>
 d5c:	add	r3, pc, r3
 d60:	ldmib	sp, {r0, r1}
 d64:	add	r3, r3, #28
 d68:	add	r2, pc, r2
 d6c:	bl	620 <snprintf@plt>
 d70:	mov	r0, r7
 d74:	bl	5c0 <free@plt>
 d78:	mvn	r4, #0
 d7c:	b	d08 <dump_daq_initialize+0x164>
 d80:	ldr	r3, [pc, #60]	; dc4 <dump_daq_initialize+0x220>
 d84:	ldr	r2, [pc, #60]	; dc8 <dump_daq_initialize+0x224>
 d88:	add	r3, pc, r3
 d8c:	ldmib	sp, {r0, r1}
 d90:	add	r3, r3, #28
 d94:	add	r2, pc, r2
 d98:	bl	620 <snprintf@plt>
 d9c:	mvn	r4, #1
 da0:	b	d08 <dump_daq_initialize+0x164>
 da4:	.word	0x00000284
 da8:	.word	0x00000200
 dac:	.word	0x0000021c
 db0:	.word	0x00000208
 db4:	.word	0x000001f4
 db8:	.word	0x000001a4
 dbc:	.word	0x00000070
 dc0:	.word	0x00000110
 dc4:	.word	0x00000044
 dc8:	.word	0x000000b0

Disassembly of section .fini:

00000dcc <_fini>:
 dcc:	push	{r3, lr}
 dd0:	pop	{r3, pc}
